
bomb:     file format elf32-i386


Disassembly of section .init:

080486f4 <_init>:
 80486f4:	53                   	push   %ebx
 80486f5:	83 ec 08             	sub    $0x8,%esp
 80486f8:	e8 13 02 00 00       	call   8048910 <__x86.get_pc_thunk.bx>
 80486fd:	81 c3 03 39 00 00    	add    $0x3903,%ebx
 8048703:	8b 83 fc ff ff ff    	mov    -0x4(%ebx),%eax
 8048709:	85 c0                	test   %eax,%eax
 804870b:	74 05                	je     8048712 <_init+0x1e>
 804870d:	e8 be 01 00 00       	call   80488d0 <.plt.got>
 8048712:	83 c4 08             	add    $0x8,%esp
 8048715:	5b                   	pop    %ebx
 8048716:	c3                   	ret    

Disassembly of section .plt:

08048720 <.plt>:
 8048720:	ff 35 04 c0 04 08    	pushl  0x804c004
 8048726:	ff 25 08 c0 04 08    	jmp    *0x804c008
 804872c:	00 00                	add    %al,(%eax)
	...

08048730 <read@plt>:
 8048730:	ff 25 0c c0 04 08    	jmp    *0x804c00c
 8048736:	68 00 00 00 00       	push   $0x0
 804873b:	e9 e0 ff ff ff       	jmp    8048720 <.plt>

08048740 <fflush@plt>:
 8048740:	ff 25 10 c0 04 08    	jmp    *0x804c010
 8048746:	68 08 00 00 00       	push   $0x8
 804874b:	e9 d0 ff ff ff       	jmp    8048720 <.plt>

08048750 <fgets@plt>:
 8048750:	ff 25 14 c0 04 08    	jmp    *0x804c014
 8048756:	68 10 00 00 00       	push   $0x10
 804875b:	e9 c0 ff ff ff       	jmp    8048720 <.plt>

08048760 <signal@plt>:
 8048760:	ff 25 18 c0 04 08    	jmp    *0x804c018
 8048766:	68 18 00 00 00       	push   $0x18
 804876b:	e9 b0 ff ff ff       	jmp    8048720 <.plt>

08048770 <sleep@plt>:
 8048770:	ff 25 1c c0 04 08    	jmp    *0x804c01c
 8048776:	68 20 00 00 00       	push   $0x20
 804877b:	e9 a0 ff ff ff       	jmp    8048720 <.plt>

08048780 <alarm@plt>:
 8048780:	ff 25 20 c0 04 08    	jmp    *0x804c020
 8048786:	68 28 00 00 00       	push   $0x28
 804878b:	e9 90 ff ff ff       	jmp    8048720 <.plt>

08048790 <__stack_chk_fail@plt>:
 8048790:	ff 25 24 c0 04 08    	jmp    *0x804c024
 8048796:	68 30 00 00 00       	push   $0x30
 804879b:	e9 80 ff ff ff       	jmp    8048720 <.plt>

080487a0 <strcpy@plt>:
 80487a0:	ff 25 28 c0 04 08    	jmp    *0x804c028
 80487a6:	68 38 00 00 00       	push   $0x38
 80487ab:	e9 70 ff ff ff       	jmp    8048720 <.plt>

080487b0 <getenv@plt>:
 80487b0:	ff 25 2c c0 04 08    	jmp    *0x804c02c
 80487b6:	68 40 00 00 00       	push   $0x40
 80487bb:	e9 60 ff ff ff       	jmp    8048720 <.plt>

080487c0 <puts@plt>:
 80487c0:	ff 25 30 c0 04 08    	jmp    *0x804c030
 80487c6:	68 48 00 00 00       	push   $0x48
 80487cb:	e9 50 ff ff ff       	jmp    8048720 <.plt>

080487d0 <__memmove_chk@plt>:
 80487d0:	ff 25 34 c0 04 08    	jmp    *0x804c034
 80487d6:	68 50 00 00 00       	push   $0x50
 80487db:	e9 40 ff ff ff       	jmp    8048720 <.plt>

080487e0 <exit@plt>:
 80487e0:	ff 25 38 c0 04 08    	jmp    *0x804c038
 80487e6:	68 58 00 00 00       	push   $0x58
 80487eb:	e9 30 ff ff ff       	jmp    8048720 <.plt>

080487f0 <__libc_start_main@plt>:
 80487f0:	ff 25 3c c0 04 08    	jmp    *0x804c03c
 80487f6:	68 60 00 00 00       	push   $0x60
 80487fb:	e9 20 ff ff ff       	jmp    8048720 <.plt>

08048800 <write@plt>:
 8048800:	ff 25 40 c0 04 08    	jmp    *0x804c040
 8048806:	68 68 00 00 00       	push   $0x68
 804880b:	e9 10 ff ff ff       	jmp    8048720 <.plt>

08048810 <__isoc99_sscanf@plt>:
 8048810:	ff 25 44 c0 04 08    	jmp    *0x804c044
 8048816:	68 70 00 00 00       	push   $0x70
 804881b:	e9 00 ff ff ff       	jmp    8048720 <.plt>

08048820 <fopen@plt>:
 8048820:	ff 25 48 c0 04 08    	jmp    *0x804c048
 8048826:	68 78 00 00 00       	push   $0x78
 804882b:	e9 f0 fe ff ff       	jmp    8048720 <.plt>

08048830 <__errno_location@plt>:
 8048830:	ff 25 4c c0 04 08    	jmp    *0x804c04c
 8048836:	68 80 00 00 00       	push   $0x80
 804883b:	e9 e0 fe ff ff       	jmp    8048720 <.plt>

08048840 <__printf_chk@plt>:
 8048840:	ff 25 50 c0 04 08    	jmp    *0x804c050
 8048846:	68 88 00 00 00       	push   $0x88
 804884b:	e9 d0 fe ff ff       	jmp    8048720 <.plt>

08048850 <socket@plt>:
 8048850:	ff 25 54 c0 04 08    	jmp    *0x804c054
 8048856:	68 90 00 00 00       	push   $0x90
 804885b:	e9 c0 fe ff ff       	jmp    8048720 <.plt>

08048860 <__fprintf_chk@plt>:
 8048860:	ff 25 58 c0 04 08    	jmp    *0x804c058
 8048866:	68 98 00 00 00       	push   $0x98
 804886b:	e9 b0 fe ff ff       	jmp    8048720 <.plt>

08048870 <gethostbyname@plt>:
 8048870:	ff 25 5c c0 04 08    	jmp    *0x804c05c
 8048876:	68 a0 00 00 00       	push   $0xa0
 804887b:	e9 a0 fe ff ff       	jmp    8048720 <.plt>

08048880 <strtol@plt>:
 8048880:	ff 25 60 c0 04 08    	jmp    *0x804c060
 8048886:	68 a8 00 00 00       	push   $0xa8
 804888b:	e9 90 fe ff ff       	jmp    8048720 <.plt>

08048890 <connect@plt>:
 8048890:	ff 25 64 c0 04 08    	jmp    *0x804c064
 8048896:	68 b0 00 00 00       	push   $0xb0
 804889b:	e9 80 fe ff ff       	jmp    8048720 <.plt>

080488a0 <close@plt>:
 80488a0:	ff 25 68 c0 04 08    	jmp    *0x804c068
 80488a6:	68 b8 00 00 00       	push   $0xb8
 80488ab:	e9 70 fe ff ff       	jmp    8048720 <.plt>

080488b0 <__ctype_b_loc@plt>:
 80488b0:	ff 25 6c c0 04 08    	jmp    *0x804c06c
 80488b6:	68 c0 00 00 00       	push   $0xc0
 80488bb:	e9 60 fe ff ff       	jmp    8048720 <.plt>

080488c0 <__sprintf_chk@plt>:
 80488c0:	ff 25 70 c0 04 08    	jmp    *0x804c070
 80488c6:	68 c8 00 00 00       	push   $0xc8
 80488cb:	e9 50 fe ff ff       	jmp    8048720 <.plt>

Disassembly of section .plt.got:

080488d0 <.plt.got>:
 80488d0:	ff 25 fc bf 04 08    	jmp    *0x804bffc
 80488d6:	66 90                	xchg   %ax,%ax

Disassembly of section .text:

080488e0 <_start>:
 80488e0:	31 ed                	xor    %ebp,%ebp
 80488e2:	5e                   	pop    %esi
 80488e3:	89 e1                	mov    %esp,%ecx
 80488e5:	83 e4 f0             	and    $0xfffffff0,%esp
 80488e8:	50                   	push   %eax
 80488e9:	54                   	push   %esp
 80488ea:	52                   	push   %edx
 80488eb:	68 e0 9e 04 08       	push   $0x8049ee0
 80488f0:	68 80 9e 04 08       	push   $0x8049e80
 80488f5:	51                   	push   %ecx
 80488f6:	56                   	push   %esi
 80488f7:	68 db 89 04 08       	push   $0x80489db
 80488fc:	e8 ef fe ff ff       	call   80487f0 <__libc_start_main@plt>
 8048901:	f4                   	hlt    
 8048902:	66 90                	xchg   %ax,%ax
 8048904:	66 90                	xchg   %ax,%ax
 8048906:	66 90                	xchg   %ax,%ax
 8048908:	66 90                	xchg   %ax,%ax
 804890a:	66 90                	xchg   %ax,%ax
 804890c:	66 90                	xchg   %ax,%ax
 804890e:	66 90                	xchg   %ax,%ax

08048910 <__x86.get_pc_thunk.bx>:
 8048910:	8b 1c 24             	mov    (%esp),%ebx
 8048913:	c3                   	ret    
 8048914:	66 90                	xchg   %ax,%ax
 8048916:	66 90                	xchg   %ax,%ax
 8048918:	66 90                	xchg   %ax,%ax
 804891a:	66 90                	xchg   %ax,%ax
 804891c:	66 90                	xchg   %ax,%ax
 804891e:	66 90                	xchg   %ax,%ax

08048920 <deregister_tm_clones>:
 8048920:	b8 a3 c3 04 08       	mov    $0x804c3a3,%eax
 8048925:	2d a0 c3 04 08       	sub    $0x804c3a0,%eax
 804892a:	83 f8 06             	cmp    $0x6,%eax
 804892d:	76 1a                	jbe    8048949 <deregister_tm_clones+0x29>
 804892f:	b8 00 00 00 00       	mov    $0x0,%eax
 8048934:	85 c0                	test   %eax,%eax
 8048936:	74 11                	je     8048949 <deregister_tm_clones+0x29>
 8048938:	55                   	push   %ebp
 8048939:	89 e5                	mov    %esp,%ebp
 804893b:	83 ec 14             	sub    $0x14,%esp
 804893e:	68 a0 c3 04 08       	push   $0x804c3a0
 8048943:	ff d0                	call   *%eax
 8048945:	83 c4 10             	add    $0x10,%esp
 8048948:	c9                   	leave  
 8048949:	f3 c3                	repz ret 
 804894b:	90                   	nop
 804894c:	8d 74 26 00          	lea    0x0(%esi,%eiz,1),%esi

08048950 <register_tm_clones>:
 8048950:	b8 a0 c3 04 08       	mov    $0x804c3a0,%eax
 8048955:	2d a0 c3 04 08       	sub    $0x804c3a0,%eax
 804895a:	c1 f8 02             	sar    $0x2,%eax
 804895d:	89 c2                	mov    %eax,%edx
 804895f:	c1 ea 1f             	shr    $0x1f,%edx
 8048962:	01 d0                	add    %edx,%eax
 8048964:	d1 f8                	sar    %eax
 8048966:	74 1b                	je     8048983 <register_tm_clones+0x33>
 8048968:	ba 00 00 00 00       	mov    $0x0,%edx
 804896d:	85 d2                	test   %edx,%edx
 804896f:	74 12                	je     8048983 <register_tm_clones+0x33>
 8048971:	55                   	push   %ebp
 8048972:	89 e5                	mov    %esp,%ebp
 8048974:	83 ec 10             	sub    $0x10,%esp
 8048977:	50                   	push   %eax
 8048978:	68 a0 c3 04 08       	push   $0x804c3a0
 804897d:	ff d2                	call   *%edx
 804897f:	83 c4 10             	add    $0x10,%esp
 8048982:	c9                   	leave  
 8048983:	f3 c3                	repz ret 
 8048985:	8d 74 26 00          	lea    0x0(%esi,%eiz,1),%esi
 8048989:	8d bc 27 00 00 00 00 	lea    0x0(%edi,%eiz,1),%edi

08048990 <__do_global_dtors_aux>:
 8048990:	80 3d c8 c3 04 08 00 	cmpb   $0x0,0x804c3c8
 8048997:	75 13                	jne    80489ac <__do_global_dtors_aux+0x1c>
 8048999:	55                   	push   %ebp
 804899a:	89 e5                	mov    %esp,%ebp
 804899c:	83 ec 08             	sub    $0x8,%esp
 804899f:	e8 7c ff ff ff       	call   8048920 <deregister_tm_clones>
 80489a4:	c6 05 c8 c3 04 08 01 	movb   $0x1,0x804c3c8
 80489ab:	c9                   	leave  
 80489ac:	f3 c3                	repz ret 
 80489ae:	66 90                	xchg   %ax,%ax

080489b0 <frame_dummy>:
 80489b0:	b8 10 bf 04 08       	mov    $0x804bf10,%eax
 80489b5:	8b 10                	mov    (%eax),%edx
 80489b7:	85 d2                	test   %edx,%edx
 80489b9:	75 05                	jne    80489c0 <frame_dummy+0x10>
 80489bb:	eb 93                	jmp    8048950 <register_tm_clones>
 80489bd:	8d 76 00             	lea    0x0(%esi),%esi
 80489c0:	ba 00 00 00 00       	mov    $0x0,%edx
 80489c5:	85 d2                	test   %edx,%edx
 80489c7:	74 f2                	je     80489bb <frame_dummy+0xb>
 80489c9:	55                   	push   %ebp
 80489ca:	89 e5                	mov    %esp,%ebp
 80489cc:	83 ec 14             	sub    $0x14,%esp
 80489cf:	50                   	push   %eax
 80489d0:	ff d2                	call   *%edx
 80489d2:	83 c4 10             	add    $0x10,%esp
 80489d5:	c9                   	leave  
 80489d6:	e9 75 ff ff ff       	jmp    8048950 <register_tm_clones>

080489db <main>:
 80489db:	8d 4c 24 04          	lea    0x4(%esp),%ecx
 80489df:	83 e4 f0             	and    $0xfffffff0,%esp
 80489e2:	ff 71 fc             	pushl  -0x4(%ecx)
 80489e5:	55                   	push   %ebp
 80489e6:	89 e5                	mov    %esp,%ebp
 80489e8:	53                   	push   %ebx
 80489e9:	51                   	push   %ecx
 80489ea:	8b 01                	mov    (%ecx),%eax
 80489ec:	8b 59 04             	mov    0x4(%ecx),%ebx
 80489ef:	83 f8 01             	cmp    $0x1,%eax
 80489f2:	75 0c                	jne    8048a00 <main+0x25>
 80489f4:	a1 c0 c3 04 08       	mov    0x804c3c0,%eax
 80489f9:	a3 d0 c3 04 08       	mov    %eax,0x804c3d0
 80489fe:	eb 5b                	jmp    8048a5b <main+0x80>
 8048a00:	83 f8 02             	cmp    $0x2,%eax
 8048a03:	75 39                	jne    8048a3e <main+0x63>
 8048a05:	83 ec 08             	sub    $0x8,%esp
 8048a08:	68 00 9f 04 08       	push   $0x8049f00
 8048a0d:	ff 73 04             	pushl  0x4(%ebx)
 8048a10:	e8 0b fe ff ff       	call   8048820 <fopen@plt>
 8048a15:	a3 d0 c3 04 08       	mov    %eax,0x804c3d0
 8048a1a:	83 c4 10             	add    $0x10,%esp
 8048a1d:	85 c0                	test   %eax,%eax
 8048a1f:	75 3a                	jne    8048a5b <main+0x80>
 8048a21:	ff 73 04             	pushl  0x4(%ebx)
 8048a24:	ff 33                	pushl  (%ebx)
 8048a26:	68 02 9f 04 08       	push   $0x8049f02
 8048a2b:	6a 01                	push   $0x1
 8048a2d:	e8 0e fe ff ff       	call   8048840 <__printf_chk@plt>
 8048a32:	c7 04 24 08 00 00 00 	movl   $0x8,(%esp)
 8048a39:	e8 a2 fd ff ff       	call   80487e0 <exit@plt>
 8048a3e:	83 ec 04             	sub    $0x4,%esp
 8048a41:	ff 33                	pushl  (%ebx)
 8048a43:	68 1f 9f 04 08       	push   $0x8049f1f
 8048a48:	6a 01                	push   $0x1
 8048a4a:	e8 f1 fd ff ff       	call   8048840 <__printf_chk@plt>
 8048a4f:	c7 04 24 08 00 00 00 	movl   $0x8,(%esp)
 8048a56:	e8 85 fd ff ff       	call   80487e0 <exit@plt>
 8048a5b:	e8 e7 05 00 00       	call   8049047 <initialize_bomb>
 8048a60:	83 ec 0c             	sub    $0xc,%esp
 8048a63:	68 84 9f 04 08       	push   $0x8049f84
 8048a68:	e8 53 fd ff ff       	call   80487c0 <puts@plt>
 8048a6d:	c7 04 24 c0 9f 04 08 	movl   $0x8049fc0,(%esp)
 8048a74:	e8 47 fd ff ff       	call   80487c0 <puts@plt>
 8048a79:	e8 c4 06 00 00       	call   8049142 <read_line>
 8048a7e:	89 04 24             	mov    %eax,(%esp)
 8048a81:	e8 aa 00 00 00       	call   8048b30 <phase_1>
 8048a86:	e8 ba 07 00 00       	call   8049245 <phase_defused>
 8048a8b:	c7 04 24 ec 9f 04 08 	movl   $0x8049fec,(%esp)
 8048a92:	e8 29 fd ff ff       	call   80487c0 <puts@plt>
 8048a97:	e8 a6 06 00 00       	call   8049142 <read_line>
 8048a9c:	89 04 24             	mov    %eax,(%esp)
 8048a9f:	e8 ad 00 00 00       	call   8048b51 <phase_2>
 8048aa4:	e8 9c 07 00 00       	call   8049245 <phase_defused>
 8048aa9:	c7 04 24 39 9f 04 08 	movl   $0x8049f39,(%esp)
 8048ab0:	e8 0b fd ff ff       	call   80487c0 <puts@plt>
 8048ab5:	e8 88 06 00 00       	call   8049142 <read_line>
 8048aba:	89 04 24             	mov    %eax,(%esp)
 8048abd:	e8 f6 00 00 00       	call   8048bb8 <phase_3>
 8048ac2:	e8 7e 07 00 00       	call   8049245 <phase_defused>
 8048ac7:	c7 04 24 57 9f 04 08 	movl   $0x8049f57,(%esp)
 8048ace:	e8 ed fc ff ff       	call   80487c0 <puts@plt>
 8048ad3:	e8 6a 06 00 00       	call   8049142 <read_line>
 8048ad8:	89 04 24             	mov    %eax,(%esp)
 8048adb:	e8 c5 01 00 00       	call   8048ca5 <phase_4>
 8048ae0:	e8 60 07 00 00       	call   8049245 <phase_defused>
 8048ae5:	c7 04 24 18 a0 04 08 	movl   $0x804a018,(%esp)
 8048aec:	e8 cf fc ff ff       	call   80487c0 <puts@plt>
 8048af1:	e8 4c 06 00 00       	call   8049142 <read_line>
 8048af6:	89 04 24             	mov    %eax,(%esp)
 8048af9:	e8 12 02 00 00       	call   8048d10 <phase_5>
 8048afe:	e8 42 07 00 00       	call   8049245 <phase_defused>
 8048b03:	c7 04 24 66 9f 04 08 	movl   $0x8049f66,(%esp)
 8048b0a:	e8 b1 fc ff ff       	call   80487c0 <puts@plt>
 8048b0f:	e8 2e 06 00 00       	call   8049142 <read_line>
 8048b14:	89 04 24             	mov    %eax,(%esp)
 8048b17:	e8 72 02 00 00       	call   8048d8e <phase_6>
 8048b1c:	e8 24 07 00 00       	call   8049245 <phase_defused>
 8048b21:	b8 00 00 00 00       	mov    $0x0,%eax
 8048b26:	8d 65 f8             	lea    -0x8(%ebp),%esp
 8048b29:	59                   	pop    %ecx
 8048b2a:	5b                   	pop    %ebx
 8048b2b:	5d                   	pop    %ebp
 8048b2c:	8d 61 fc             	lea    -0x4(%ecx),%esp
 8048b2f:	c3                   	ret    

08048b30 <phase_1>:
 8048b30:	55                   	push   %ebp
 8048b31:	89 e5                	mov    %esp,%ebp
 8048b33:	83 ec 10             	sub    $0x10,%esp
 8048b36:	68 3c a0 04 08       	push   $0x804a03c
 8048b3b:	ff 75 08             	pushl  0x8(%ebp)
 8048b3e:	e8 9a 04 00 00       	call   8048fdd <strings_not_equal>
 8048b43:	83 c4 10             	add    $0x10,%esp
 8048b46:	85 c0                	test   %eax,%eax
 8048b48:	74 05                	je     8048b4f <phase_1+0x1f>
 8048b4a:	e8 91 05 00 00       	call   80490e0 <explode_bomb>
 8048b4f:	c9                   	leave  
 8048b50:	c3                   	ret    

08048b51 <phase_2>:
 8048b51:	55                   	push   %ebp
 8048b52:	89 e5                	mov    %esp,%ebp
 8048b54:	56                   	push   %esi
 8048b55:	53                   	push   %ebx
 8048b56:	83 ec 28             	sub    $0x28,%esp
 8048b59:	65 a1 14 00 00 00    	mov    %gs:0x14,%eax
 8048b5f:	89 45 f4             	mov    %eax,-0xc(%ebp)
 8048b62:	31 c0                	xor    %eax,%eax
 8048b64:	8d 45 dc             	lea    -0x24(%ebp),%eax
 8048b67:	50                   	push   %eax
 8048b68:	ff 75 08             	pushl  0x8(%ebp)
 8048b6b:	e8 98 05 00 00       	call   8049108 <read_six_numbers>
 8048b70:	83 c4 10             	add    $0x10,%esp
 8048b73:	83 7d dc 00          	cmpl   $0x0,-0x24(%ebp)
 8048b77:	75 06                	jne    8048b7f <phase_2+0x2e>
 8048b79:	83 7d e0 01          	cmpl   $0x1,-0x20(%ebp)
 8048b7d:	74 05                	je     8048b84 <phase_2+0x33>
 8048b7f:	e8 5c 05 00 00       	call   80490e0 <explode_bomb>
 8048b84:	8d 5d dc             	lea    -0x24(%ebp),%ebx
 8048b87:	8d 75 ec             	lea    -0x14(%ebp),%esi
 8048b8a:	8b 43 04             	mov    0x4(%ebx),%eax
 8048b8d:	03 03                	add    (%ebx),%eax
 8048b8f:	39 43 08             	cmp    %eax,0x8(%ebx)
 8048b92:	74 05                	je     8048b99 <phase_2+0x48>
 8048b94:	e8 47 05 00 00       	call   80490e0 <explode_bomb>
 8048b99:	83 c3 04             	add    $0x4,%ebx
 8048b9c:	39 f3                	cmp    %esi,%ebx
 8048b9e:	75 ea                	jne    8048b8a <phase_2+0x39>
 8048ba0:	8b 45 f4             	mov    -0xc(%ebp),%eax
 8048ba3:	65 33 05 14 00 00 00 	xor    %gs:0x14,%eax
 8048baa:	74 05                	je     8048bb1 <phase_2+0x60>
 8048bac:	e8 df fb ff ff       	call   8048790 <__stack_chk_fail@plt>
 8048bb1:	8d 65 f8             	lea    -0x8(%ebp),%esp
 8048bb4:	5b                   	pop    %ebx
 8048bb5:	5e                   	pop    %esi
 8048bb6:	5d                   	pop    %ebp
 8048bb7:	c3                   	ret    

08048bb8 <phase_3>:
 8048bb8:	55                   	push   %ebp
 8048bb9:	89 e5                	mov    %esp,%ebp
 8048bbb:	83 ec 18             	sub    $0x18,%esp
 8048bbe:	65 a1 14 00 00 00    	mov    %gs:0x14,%eax
 8048bc4:	89 45 f4             	mov    %eax,-0xc(%ebp)
 8048bc7:	31 c0                	xor    %eax,%eax
 8048bc9:	8d 45 f0             	lea    -0x10(%ebp),%eax
 8048bcc:	50                   	push   %eax
 8048bcd:	8d 45 ec             	lea    -0x14(%ebp),%eax
 8048bd0:	50                   	push   %eax
 8048bd1:	68 db a1 04 08       	push   $0x804a1db
 8048bd6:	ff 75 08             	pushl  0x8(%ebp)
 8048bd9:	e8 32 fc ff ff       	call   8048810 <__isoc99_sscanf@plt>
 8048bde:	83 c4 10             	add    $0x10,%esp
 8048be1:	83 f8 01             	cmp    $0x1,%eax
 8048be4:	7f 05                	jg     8048beb <phase_3+0x33>
 8048be6:	e8 f5 04 00 00       	call   80490e0 <explode_bomb>
 8048beb:	83 7d ec 07          	cmpl   $0x7,-0x14(%ebp)
 8048bef:	77 3b                	ja     8048c2c <phase_3+0x74>
 8048bf1:	8b 45 ec             	mov    -0x14(%ebp),%eax
 8048bf4:	ff 24 85 9c a0 04 08 	jmp    *0x804a09c(,%eax,4)
 8048bfb:	b8 3c 02 00 00       	mov    $0x23c,%eax
 8048c00:	eb 3b                	jmp    8048c3d <phase_3+0x85>
 8048c02:	b8 43 01 00 00       	mov    $0x143,%eax
 8048c07:	eb 34                	jmp    8048c3d <phase_3+0x85>
 8048c09:	b8 98 02 00 00       	mov    $0x298,%eax
 8048c0e:	eb 2d                	jmp    8048c3d <phase_3+0x85>
 8048c10:	b8 0d 03 00 00       	mov    $0x30d,%eax
 8048c15:	eb 26                	jmp    8048c3d <phase_3+0x85>
 8048c17:	b8 bb 00 00 00       	mov    $0xbb,%eax
 8048c1c:	eb 1f                	jmp    8048c3d <phase_3+0x85>
 8048c1e:	b8 e7 00 00 00       	mov    $0xe7,%eax
 8048c23:	eb 18                	jmp    8048c3d <phase_3+0x85>
 8048c25:	b8 42 02 00 00       	mov    $0x242,%eax
 8048c2a:	eb 11                	jmp    8048c3d <phase_3+0x85>
 8048c2c:	e8 af 04 00 00       	call   80490e0 <explode_bomb>
 8048c31:	b8 00 00 00 00       	mov    $0x0,%eax
 8048c36:	eb 05                	jmp    8048c3d <phase_3+0x85>
 8048c38:	b8 a1 01 00 00       	mov    $0x1a1,%eax
 8048c3d:	3b 45 f0             	cmp    -0x10(%ebp),%eax
 8048c40:	74 05                	je     8048c47 <phase_3+0x8f>
 8048c42:	e8 99 04 00 00       	call   80490e0 <explode_bomb>
 8048c47:	8b 45 f4             	mov    -0xc(%ebp),%eax
 8048c4a:	65 33 05 14 00 00 00 	xor    %gs:0x14,%eax
 8048c51:	74 05                	je     8048c58 <phase_3+0xa0>
 8048c53:	e8 38 fb ff ff       	call   8048790 <__stack_chk_fail@plt>
 8048c58:	c9                   	leave  
 8048c59:	c3                   	ret    

08048c5a <func4>:
 8048c5a:	55                   	push   %ebp
 8048c5b:	89 e5                	mov    %esp,%ebp
 8048c5d:	57                   	push   %edi
 8048c5e:	56                   	push   %esi
 8048c5f:	53                   	push   %ebx
 8048c60:	83 ec 0c             	sub    $0xc,%esp
 8048c63:	8b 5d 08             	mov    0x8(%ebp),%ebx
 8048c66:	8b 7d 0c             	mov    0xc(%ebp),%edi
 8048c69:	85 db                	test   %ebx,%ebx
 8048c6b:	7e 2b                	jle    8048c98 <func4+0x3e>
 8048c6d:	89 f8                	mov    %edi,%eax
 8048c6f:	83 fb 01             	cmp    $0x1,%ebx
 8048c72:	74 29                	je     8048c9d <func4+0x43>
 8048c74:	83 ec 08             	sub    $0x8,%esp
 8048c77:	57                   	push   %edi
 8048c78:	8d 43 ff             	lea    -0x1(%ebx),%eax
 8048c7b:	50                   	push   %eax
 8048c7c:	e8 d9 ff ff ff       	call   8048c5a <func4>
 8048c81:	83 c4 08             	add    $0x8,%esp
 8048c84:	8d 34 07             	lea    (%edi,%eax,1),%esi
 8048c87:	57                   	push   %edi
 8048c88:	83 eb 02             	sub    $0x2,%ebx
 8048c8b:	53                   	push   %ebx
 8048c8c:	e8 c9 ff ff ff       	call   8048c5a <func4>
 8048c91:	83 c4 10             	add    $0x10,%esp
 8048c94:	01 f0                	add    %esi,%eax
 8048c96:	eb 05                	jmp    8048c9d <func4+0x43>
 8048c98:	b8 00 00 00 00       	mov    $0x0,%eax
 8048c9d:	8d 65 f4             	lea    -0xc(%ebp),%esp
 8048ca0:	5b                   	pop    %ebx
 8048ca1:	5e                   	pop    %esi
 8048ca2:	5f                   	pop    %edi
 8048ca3:	5d                   	pop    %ebp
 8048ca4:	c3                   	ret    

08048ca5 <phase_4>:
 8048ca5:	55                   	push   %ebp
 8048ca6:	89 e5                	mov    %esp,%ebp
 8048ca8:	83 ec 18             	sub    $0x18,%esp
 8048cab:	65 a1 14 00 00 00    	mov    %gs:0x14,%eax
 8048cb1:	89 45 f4             	mov    %eax,-0xc(%ebp)
 8048cb4:	31 c0                	xor    %eax,%eax
 8048cb6:	8d 45 ec             	lea    -0x14(%ebp),%eax
 8048cb9:	50                   	push   %eax
 8048cba:	8d 45 f0             	lea    -0x10(%ebp),%eax
 8048cbd:	50                   	push   %eax
 8048cbe:	68 db a1 04 08       	push   $0x804a1db
 8048cc3:	ff 75 08             	pushl  0x8(%ebp)
 8048cc6:	e8 45 fb ff ff       	call   8048810 <__isoc99_sscanf@plt>
 8048ccb:	83 c4 10             	add    $0x10,%esp
 8048cce:	83 f8 02             	cmp    $0x2,%eax
 8048cd1:	75 0b                	jne    8048cde <phase_4+0x39>
 8048cd3:	8b 45 ec             	mov    -0x14(%ebp),%eax
 8048cd6:	83 e8 02             	sub    $0x2,%eax
 8048cd9:	83 f8 02             	cmp    $0x2,%eax
 8048cdc:	76 05                	jbe    8048ce3 <phase_4+0x3e>
 8048cde:	e8 fd 03 00 00       	call   80490e0 <explode_bomb>
 8048ce3:	83 ec 08             	sub    $0x8,%esp
 8048ce6:	ff 75 ec             	pushl  -0x14(%ebp)
 8048ce9:	6a 09                	push   $0x9
 8048ceb:	e8 6a ff ff ff       	call   8048c5a <func4>
 8048cf0:	83 c4 10             	add    $0x10,%esp
 8048cf3:	3b 45 f0             	cmp    -0x10(%ebp),%eax
 8048cf6:	74 05                	je     8048cfd <phase_4+0x58>
 8048cf8:	e8 e3 03 00 00       	call   80490e0 <explode_bomb>
 8048cfd:	8b 45 f4             	mov    -0xc(%ebp),%eax
 8048d00:	65 33 05 14 00 00 00 	xor    %gs:0x14,%eax
 8048d07:	74 05                	je     8048d0e <phase_4+0x69>
 8048d09:	e8 82 fa ff ff       	call   8048790 <__stack_chk_fail@plt>
 8048d0e:	c9                   	leave  
 8048d0f:	c3                   	ret    

08048d10 <phase_5>:
 8048d10:	55                   	push   %ebp
 8048d11:	89 e5                	mov    %esp,%ebp
 8048d13:	53                   	push   %ebx
 8048d14:	83 ec 20             	sub    $0x20,%esp
 8048d17:	8b 5d 08             	mov    0x8(%ebp),%ebx
 8048d1a:	65 a1 14 00 00 00    	mov    %gs:0x14,%eax
 8048d20:	89 45 f4             	mov    %eax,-0xc(%ebp)
 8048d23:	31 c0                	xor    %eax,%eax
 8048d25:	53                   	push   %ebx
 8048d26:	e8 90 02 00 00       	call   8048fbb <string_length>
 8048d2b:	83 c4 10             	add    $0x10,%esp
 8048d2e:	83 f8 06             	cmp    $0x6,%eax
 8048d31:	74 05                	je     8048d38 <phase_5+0x28>
 8048d33:	e8 a8 03 00 00       	call   80490e0 <explode_bomb>
 8048d38:	b8 00 00 00 00       	mov    $0x0,%eax
 8048d3d:	0f b6 14 03          	movzbl (%ebx,%eax,1),%edx
 8048d41:	83 e2 0f             	and    $0xf,%edx
 8048d44:	0f b6 92 bc a0 04 08 	movzbl 0x804a0bc(%edx),%edx
 8048d4b:	88 54 05 ed          	mov    %dl,-0x13(%ebp,%eax,1)
 8048d4f:	83 c0 01             	add    $0x1,%eax
 8048d52:	83 f8 06             	cmp    $0x6,%eax
 8048d55:	75 e6                	jne    8048d3d <phase_5+0x2d>
 8048d57:	c6 45 f3 00          	movb   $0x0,-0xd(%ebp)
 8048d5b:	83 ec 08             	sub    $0x8,%esp
 8048d5e:	68 92 a0 04 08       	push   $0x804a092
 8048d63:	8d 45 ed             	lea    -0x13(%ebp),%eax
 8048d66:	50                   	push   %eax
 8048d67:	e8 71 02 00 00       	call   8048fdd <strings_not_equal>
 8048d6c:	83 c4 10             	add    $0x10,%esp
 8048d6f:	85 c0                	test   %eax,%eax
 8048d71:	74 05                	je     8048d78 <phase_5+0x68>
 8048d73:	e8 68 03 00 00       	call   80490e0 <explode_bomb>
 8048d78:	8b 45 f4             	mov    -0xc(%ebp),%eax
 8048d7b:	65 33 05 14 00 00 00 	xor    %gs:0x14,%eax
 8048d82:	74 05                	je     8048d89 <phase_5+0x79>
 8048d84:	e8 07 fa ff ff       	call   8048790 <__stack_chk_fail@plt>
 8048d89:	8b 5d fc             	mov    -0x4(%ebp),%ebx
 8048d8c:	c9                   	leave  
 8048d8d:	c3                   	ret    

08048d8e <phase_6>:
 8048d8e:	55                   	push   %ebp
 8048d8f:	89 e5                	mov    %esp,%ebp
 8048d91:	56                   	push   %esi
 8048d92:	53                   	push   %ebx
 8048d93:	83 ec 48             	sub    $0x48,%esp
 8048d96:	65 a1 14 00 00 00    	mov    %gs:0x14,%eax
 8048d9c:	89 45 f4             	mov    %eax,-0xc(%ebp)
 8048d9f:	31 c0                	xor    %eax,%eax
 8048da1:	8d 45 c4             	lea    -0x3c(%ebp),%eax
 8048da4:	50                   	push   %eax
 8048da5:	ff 75 08             	pushl  0x8(%ebp)
 8048da8:	e8 5b 03 00 00       	call   8049108 <read_six_numbers>
 8048dad:	83 c4 10             	add    $0x10,%esp
 8048db0:	be 00 00 00 00       	mov    $0x0,%esi
 8048db5:	8b 44 b5 c4          	mov    -0x3c(%ebp,%esi,4),%eax
 8048db9:	83 e8 01             	sub    $0x1,%eax
 8048dbc:	83 f8 05             	cmp    $0x5,%eax
 8048dbf:	76 05                	jbe    8048dc6 <phase_6+0x38>
 8048dc1:	e8 1a 03 00 00       	call   80490e0 <explode_bomb>
 8048dc6:	83 c6 01             	add    $0x1,%esi
 8048dc9:	83 fe 06             	cmp    $0x6,%esi
 8048dcc:	74 1b                	je     8048de9 <phase_6+0x5b>
 8048dce:	89 f3                	mov    %esi,%ebx
 8048dd0:	8b 44 9d c4          	mov    -0x3c(%ebp,%ebx,4),%eax
 8048dd4:	39 44 b5 c0          	cmp    %eax,-0x40(%ebp,%esi,4)
 8048dd8:	75 05                	jne    8048ddf <phase_6+0x51>
 8048dda:	e8 01 03 00 00       	call   80490e0 <explode_bomb>
 8048ddf:	83 c3 01             	add    $0x1,%ebx
 8048de2:	83 fb 05             	cmp    $0x5,%ebx
 8048de5:	7e e9                	jle    8048dd0 <phase_6+0x42>
 8048de7:	eb cc                	jmp    8048db5 <phase_6+0x27>
 8048de9:	8d 45 c4             	lea    -0x3c(%ebp),%eax
 8048dec:	8d 5d dc             	lea    -0x24(%ebp),%ebx
 8048def:	b9 07 00 00 00       	mov    $0x7,%ecx
 8048df4:	89 ca                	mov    %ecx,%edx
 8048df6:	2b 10                	sub    (%eax),%edx
 8048df8:	89 10                	mov    %edx,(%eax)
 8048dfa:	83 c0 04             	add    $0x4,%eax
 8048dfd:	39 c3                	cmp    %eax,%ebx
 8048dff:	75 f3                	jne    8048df4 <phase_6+0x66>
 8048e01:	bb 00 00 00 00       	mov    $0x0,%ebx
 8048e06:	eb 16                	jmp    8048e1e <phase_6+0x90>
 8048e08:	8b 52 08             	mov    0x8(%edx),%edx
 8048e0b:	83 c0 01             	add    $0x1,%eax
 8048e0e:	39 c8                	cmp    %ecx,%eax
 8048e10:	75 f6                	jne    8048e08 <phase_6+0x7a>
 8048e12:	89 54 b5 dc          	mov    %edx,-0x24(%ebp,%esi,4)
 8048e16:	83 c3 01             	add    $0x1,%ebx
 8048e19:	83 fb 06             	cmp    $0x6,%ebx
 8048e1c:	74 17                	je     8048e35 <phase_6+0xa7>
 8048e1e:	89 de                	mov    %ebx,%esi
 8048e20:	8b 4c 9d c4          	mov    -0x3c(%ebp,%ebx,4),%ecx
 8048e24:	b8 01 00 00 00       	mov    $0x1,%eax
 8048e29:	ba 3c c1 04 08       	mov    $0x804c13c,%edx
 8048e2e:	83 f9 01             	cmp    $0x1,%ecx
 8048e31:	7f d5                	jg     8048e08 <phase_6+0x7a>
 8048e33:	eb dd                	jmp    8048e12 <phase_6+0x84>
 8048e35:	8b 5d dc             	mov    -0x24(%ebp),%ebx
 8048e38:	8d 45 dc             	lea    -0x24(%ebp),%eax
 8048e3b:	8d 75 f0             	lea    -0x10(%ebp),%esi
 8048e3e:	89 d9                	mov    %ebx,%ecx
 8048e40:	8b 50 04             	mov    0x4(%eax),%edx
 8048e43:	89 51 08             	mov    %edx,0x8(%ecx)
 8048e46:	83 c0 04             	add    $0x4,%eax
 8048e49:	89 d1                	mov    %edx,%ecx
 8048e4b:	39 c6                	cmp    %eax,%esi
 8048e4d:	75 f1                	jne    8048e40 <phase_6+0xb2>
 8048e4f:	c7 42 08 00 00 00 00 	movl   $0x0,0x8(%edx)
 8048e56:	be 05 00 00 00       	mov    $0x5,%esi
 8048e5b:	8b 43 08             	mov    0x8(%ebx),%eax
 8048e5e:	8b 00                	mov    (%eax),%eax
 8048e60:	39 03                	cmp    %eax,(%ebx)
 8048e62:	7d 05                	jge    8048e69 <phase_6+0xdb>
 8048e64:	e8 77 02 00 00       	call   80490e0 <explode_bomb>
 8048e69:	8b 5b 08             	mov    0x8(%ebx),%ebx
 8048e6c:	83 ee 01             	sub    $0x1,%esi
 8048e6f:	75 ea                	jne    8048e5b <phase_6+0xcd>
 8048e71:	8b 45 f4             	mov    -0xc(%ebp),%eax
 8048e74:	65 33 05 14 00 00 00 	xor    %gs:0x14,%eax
 8048e7b:	74 05                	je     8048e82 <phase_6+0xf4>
 8048e7d:	e8 0e f9 ff ff       	call   8048790 <__stack_chk_fail@plt>
 8048e82:	8d 65 f8             	lea    -0x8(%ebp),%esp
 8048e85:	5b                   	pop    %ebx
 8048e86:	5e                   	pop    %esi
 8048e87:	5d                   	pop    %ebp
 8048e88:	c3                   	ret    

08048e89 <fun7>:
 8048e89:	55                   	push   %ebp
 8048e8a:	89 e5                	mov    %esp,%ebp
 8048e8c:	53                   	push   %ebx
 8048e8d:	83 ec 04             	sub    $0x4,%esp
 8048e90:	8b 55 08             	mov    0x8(%ebp),%edx
 8048e93:	8b 4d 0c             	mov    0xc(%ebp),%ecx
 8048e96:	85 d2                	test   %edx,%edx
 8048e98:	74 37                	je     8048ed1 <fun7+0x48>
 8048e9a:	8b 1a                	mov    (%edx),%ebx
 8048e9c:	39 cb                	cmp    %ecx,%ebx
 8048e9e:	7e 13                	jle    8048eb3 <fun7+0x2a>
 8048ea0:	83 ec 08             	sub    $0x8,%esp
 8048ea3:	51                   	push   %ecx
 8048ea4:	ff 72 04             	pushl  0x4(%edx)
 8048ea7:	e8 dd ff ff ff       	call   8048e89 <fun7>
 8048eac:	83 c4 10             	add    $0x10,%esp
 8048eaf:	01 c0                	add    %eax,%eax
 8048eb1:	eb 23                	jmp    8048ed6 <fun7+0x4d>
 8048eb3:	b8 00 00 00 00       	mov    $0x0,%eax
 8048eb8:	39 cb                	cmp    %ecx,%ebx
 8048eba:	74 1a                	je     8048ed6 <fun7+0x4d>
 8048ebc:	83 ec 08             	sub    $0x8,%esp
 8048ebf:	51                   	push   %ecx
 8048ec0:	ff 72 08             	pushl  0x8(%edx)
 8048ec3:	e8 c1 ff ff ff       	call   8048e89 <fun7>
 8048ec8:	83 c4 10             	add    $0x10,%esp
 8048ecb:	8d 44 00 01          	lea    0x1(%eax,%eax,1),%eax
 8048ecf:	eb 05                	jmp    8048ed6 <fun7+0x4d>
 8048ed1:	b8 ff ff ff ff       	mov    $0xffffffff,%eax
 8048ed6:	8b 5d fc             	mov    -0x4(%ebp),%ebx
 8048ed9:	c9                   	leave  
 8048eda:	c3                   	ret    

08048edb <secret_phase>:
 8048edb:	55                   	push   %ebp
 8048edc:	89 e5                	mov    %esp,%ebp
 8048ede:	53                   	push   %ebx
 8048edf:	83 ec 04             	sub    $0x4,%esp
 8048ee2:	e8 5b 02 00 00       	call   8049142 <read_line>
 8048ee7:	83 ec 04             	sub    $0x4,%esp
 8048eea:	6a 0a                	push   $0xa
 8048eec:	6a 00                	push   $0x0
 8048eee:	50                   	push   %eax
 8048eef:	e8 8c f9 ff ff       	call   8048880 <strtol@plt>
 8048ef4:	89 c3                	mov    %eax,%ebx
 8048ef6:	8d 40 ff             	lea    -0x1(%eax),%eax
 8048ef9:	83 c4 10             	add    $0x10,%esp
 8048efc:	3d e8 03 00 00       	cmp    $0x3e8,%eax
 8048f01:	76 05                	jbe    8048f08 <secret_phase+0x2d>
 8048f03:	e8 d8 01 00 00       	call   80490e0 <explode_bomb>
 8048f08:	83 ec 08             	sub    $0x8,%esp
 8048f0b:	53                   	push   %ebx
 8048f0c:	68 88 c0 04 08       	push   $0x804c088
 8048f11:	e8 73 ff ff ff       	call   8048e89 <fun7>
 8048f16:	83 c4 10             	add    $0x10,%esp
 8048f19:	83 f8 02             	cmp    $0x2,%eax
 8048f1c:	74 05                	je     8048f23 <secret_phase+0x48>
 8048f1e:	e8 bd 01 00 00       	call   80490e0 <explode_bomb>
 8048f23:	83 ec 0c             	sub    $0xc,%esp
 8048f26:	68 6c a0 04 08       	push   $0x804a06c
 8048f2b:	e8 90 f8 ff ff       	call   80487c0 <puts@plt>
 8048f30:	e8 10 03 00 00       	call   8049245 <phase_defused>
 8048f35:	83 c4 10             	add    $0x10,%esp
 8048f38:	8b 5d fc             	mov    -0x4(%ebp),%ebx
 8048f3b:	c9                   	leave  
 8048f3c:	c3                   	ret    

08048f3d <sig_handler>:
 8048f3d:	55                   	push   %ebp
 8048f3e:	89 e5                	mov    %esp,%ebp
 8048f40:	83 ec 14             	sub    $0x14,%esp
 8048f43:	68 cc a0 04 08       	push   $0x804a0cc
 8048f48:	e8 73 f8 ff ff       	call   80487c0 <puts@plt>
 8048f4d:	c7 04 24 03 00 00 00 	movl   $0x3,(%esp)
 8048f54:	e8 17 f8 ff ff       	call   8048770 <sleep@plt>
 8048f59:	83 c4 08             	add    $0x8,%esp
 8048f5c:	68 8e a1 04 08       	push   $0x804a18e
 8048f61:	6a 01                	push   $0x1
 8048f63:	e8 d8 f8 ff ff       	call   8048840 <__printf_chk@plt>
 8048f68:	83 c4 04             	add    $0x4,%esp
 8048f6b:	ff 35 c4 c3 04 08    	pushl  0x804c3c4
 8048f71:	e8 ca f7 ff ff       	call   8048740 <fflush@plt>
 8048f76:	c7 04 24 01 00 00 00 	movl   $0x1,(%esp)
 8048f7d:	e8 ee f7 ff ff       	call   8048770 <sleep@plt>
 8048f82:	c7 04 24 96 a1 04 08 	movl   $0x804a196,(%esp)
 8048f89:	e8 32 f8 ff ff       	call   80487c0 <puts@plt>
 8048f8e:	c7 04 24 10 00 00 00 	movl   $0x10,(%esp)
 8048f95:	e8 46 f8 ff ff       	call   80487e0 <exit@plt>

08048f9a <invalid_phase>:
 8048f9a:	55                   	push   %ebp
 8048f9b:	89 e5                	mov    %esp,%ebp
 8048f9d:	83 ec 0c             	sub    $0xc,%esp
 8048fa0:	ff 75 08             	pushl  0x8(%ebp)
 8048fa3:	68 9e a1 04 08       	push   $0x804a19e
 8048fa8:	6a 01                	push   $0x1
 8048faa:	e8 91 f8 ff ff       	call   8048840 <__printf_chk@plt>
 8048faf:	c7 04 24 08 00 00 00 	movl   $0x8,(%esp)
 8048fb6:	e8 25 f8 ff ff       	call   80487e0 <exit@plt>

08048fbb <string_length>:
 8048fbb:	55                   	push   %ebp
 8048fbc:	89 e5                	mov    %esp,%ebp
 8048fbe:	8b 55 08             	mov    0x8(%ebp),%edx
 8048fc1:	80 3a 00             	cmpb   $0x0,(%edx)
 8048fc4:	74 10                	je     8048fd6 <string_length+0x1b>
 8048fc6:	b8 00 00 00 00       	mov    $0x0,%eax
 8048fcb:	83 c0 01             	add    $0x1,%eax
 8048fce:	80 3c 02 00          	cmpb   $0x0,(%edx,%eax,1)
 8048fd2:	75 f7                	jne    8048fcb <string_length+0x10>
 8048fd4:	eb 05                	jmp    8048fdb <string_length+0x20>
 8048fd6:	b8 00 00 00 00       	mov    $0x0,%eax
 8048fdb:	5d                   	pop    %ebp
 8048fdc:	c3                   	ret    

08048fdd <strings_not_equal>:
 8048fdd:	55                   	push   %ebp
 8048fde:	89 e5                	mov    %esp,%ebp
 8048fe0:	57                   	push   %edi
 8048fe1:	56                   	push   %esi
 8048fe2:	53                   	push   %ebx
 8048fe3:	8b 5d 08             	mov    0x8(%ebp),%ebx
 8048fe6:	8b 75 0c             	mov    0xc(%ebp),%esi
 8048fe9:	53                   	push   %ebx
 8048fea:	e8 cc ff ff ff       	call   8048fbb <string_length>
 8048fef:	89 c7                	mov    %eax,%edi
 8048ff1:	89 34 24             	mov    %esi,(%esp)
 8048ff4:	e8 c2 ff ff ff       	call   8048fbb <string_length>
 8048ff9:	83 c4 04             	add    $0x4,%esp
 8048ffc:	ba 01 00 00 00       	mov    $0x1,%edx
 8049001:	39 c7                	cmp    %eax,%edi
 8049003:	75 38                	jne    804903d <strings_not_equal+0x60>
 8049005:	0f b6 03             	movzbl (%ebx),%eax
 8049008:	84 c0                	test   %al,%al
 804900a:	74 1e                	je     804902a <strings_not_equal+0x4d>
 804900c:	3a 06                	cmp    (%esi),%al
 804900e:	74 06                	je     8049016 <strings_not_equal+0x39>
 8049010:	eb 1f                	jmp    8049031 <strings_not_equal+0x54>
 8049012:	3a 06                	cmp    (%esi),%al
 8049014:	75 22                	jne    8049038 <strings_not_equal+0x5b>
 8049016:	83 c3 01             	add    $0x1,%ebx
 8049019:	83 c6 01             	add    $0x1,%esi
 804901c:	0f b6 03             	movzbl (%ebx),%eax
 804901f:	84 c0                	test   %al,%al
 8049021:	75 ef                	jne    8049012 <strings_not_equal+0x35>
 8049023:	ba 00 00 00 00       	mov    $0x0,%edx
 8049028:	eb 13                	jmp    804903d <strings_not_equal+0x60>
 804902a:	ba 00 00 00 00       	mov    $0x0,%edx
 804902f:	eb 0c                	jmp    804903d <strings_not_equal+0x60>
 8049031:	ba 01 00 00 00       	mov    $0x1,%edx
 8049036:	eb 05                	jmp    804903d <strings_not_equal+0x60>
 8049038:	ba 01 00 00 00       	mov    $0x1,%edx
 804903d:	89 d0                	mov    %edx,%eax
 804903f:	8d 65 f4             	lea    -0xc(%ebp),%esp
 8049042:	5b                   	pop    %ebx
 8049043:	5e                   	pop    %esi
 8049044:	5f                   	pop    %edi
 8049045:	5d                   	pop    %ebp
 8049046:	c3                   	ret    

08049047 <initialize_bomb>:
 8049047:	55                   	push   %ebp
 8049048:	89 e5                	mov    %esp,%ebp
 804904a:	83 ec 10             	sub    $0x10,%esp
 804904d:	68 3d 8f 04 08       	push   $0x8048f3d
 8049052:	6a 02                	push   $0x2
 8049054:	e8 07 f7 ff ff       	call   8048760 <signal@plt>
 8049059:	83 c4 10             	add    $0x10,%esp
 804905c:	c9                   	leave  
 804905d:	c3                   	ret    

0804905e <initialize_bomb_solve>:
 804905e:	55                   	push   %ebp
 804905f:	89 e5                	mov    %esp,%ebp
 8049061:	5d                   	pop    %ebp
 8049062:	c3                   	ret    

08049063 <blank_line>:
 8049063:	55                   	push   %ebp
 8049064:	89 e5                	mov    %esp,%ebp
 8049066:	56                   	push   %esi
 8049067:	53                   	push   %ebx
 8049068:	8b 75 08             	mov    0x8(%ebp),%esi
 804906b:	eb 14                	jmp    8049081 <blank_line+0x1e>
 804906d:	e8 3e f8 ff ff       	call   80488b0 <__ctype_b_loc@plt>
 8049072:	83 c6 01             	add    $0x1,%esi
 8049075:	0f be db             	movsbl %bl,%ebx
 8049078:	8b 00                	mov    (%eax),%eax
 804907a:	f6 44 58 01 20       	testb  $0x20,0x1(%eax,%ebx,2)
 804907f:	74 0e                	je     804908f <blank_line+0x2c>
 8049081:	0f b6 1e             	movzbl (%esi),%ebx
 8049084:	84 db                	test   %bl,%bl
 8049086:	75 e5                	jne    804906d <blank_line+0xa>
 8049088:	b8 01 00 00 00       	mov    $0x1,%eax
 804908d:	eb 05                	jmp    8049094 <blank_line+0x31>
 804908f:	b8 00 00 00 00       	mov    $0x0,%eax
 8049094:	5b                   	pop    %ebx
 8049095:	5e                   	pop    %esi
 8049096:	5d                   	pop    %ebp
 8049097:	c3                   	ret    

08049098 <skip>:
 8049098:	55                   	push   %ebp
 8049099:	89 e5                	mov    %esp,%ebp
 804909b:	53                   	push   %ebx
 804909c:	83 ec 04             	sub    $0x4,%esp
 804909f:	83 ec 04             	sub    $0x4,%esp
 80490a2:	ff 35 d0 c3 04 08    	pushl  0x804c3d0
 80490a8:	6a 50                	push   $0x50
 80490aa:	a1 cc c3 04 08       	mov    0x804c3cc,%eax
 80490af:	8d 04 80             	lea    (%eax,%eax,4),%eax
 80490b2:	c1 e0 04             	shl    $0x4,%eax
 80490b5:	05 e0 c3 04 08       	add    $0x804c3e0,%eax
 80490ba:	50                   	push   %eax
 80490bb:	e8 90 f6 ff ff       	call   8048750 <fgets@plt>
 80490c0:	89 c3                	mov    %eax,%ebx
 80490c2:	83 c4 10             	add    $0x10,%esp
 80490c5:	85 c0                	test   %eax,%eax
 80490c7:	74 10                	je     80490d9 <skip+0x41>
 80490c9:	83 ec 0c             	sub    $0xc,%esp
 80490cc:	50                   	push   %eax
 80490cd:	e8 91 ff ff ff       	call   8049063 <blank_line>
 80490d2:	83 c4 10             	add    $0x10,%esp
 80490d5:	85 c0                	test   %eax,%eax
 80490d7:	75 c6                	jne    804909f <skip+0x7>
 80490d9:	89 d8                	mov    %ebx,%eax
 80490db:	8b 5d fc             	mov    -0x4(%ebp),%ebx
 80490de:	c9                   	leave  
 80490df:	c3                   	ret    

080490e0 <explode_bomb>:
 80490e0:	55                   	push   %ebp
 80490e1:	89 e5                	mov    %esp,%ebp
 80490e3:	83 ec 14             	sub    $0x14,%esp
 80490e6:	68 af a1 04 08       	push   $0x804a1af
 80490eb:	e8 d0 f6 ff ff       	call   80487c0 <puts@plt>
 80490f0:	c7 04 24 b8 a1 04 08 	movl   $0x804a1b8,(%esp)
 80490f7:	e8 c4 f6 ff ff       	call   80487c0 <puts@plt>
 80490fc:	c7 04 24 08 00 00 00 	movl   $0x8,(%esp)
 8049103:	e8 d8 f6 ff ff       	call   80487e0 <exit@plt>

08049108 <read_six_numbers>:
 8049108:	55                   	push   %ebp
 8049109:	89 e5                	mov    %esp,%ebp
 804910b:	83 ec 08             	sub    $0x8,%esp
 804910e:	8b 45 0c             	mov    0xc(%ebp),%eax
 8049111:	8d 50 14             	lea    0x14(%eax),%edx
 8049114:	52                   	push   %edx
 8049115:	8d 50 10             	lea    0x10(%eax),%edx
 8049118:	52                   	push   %edx
 8049119:	8d 50 0c             	lea    0xc(%eax),%edx
 804911c:	52                   	push   %edx
 804911d:	8d 50 08             	lea    0x8(%eax),%edx
 8049120:	52                   	push   %edx
 8049121:	8d 50 04             	lea    0x4(%eax),%edx
 8049124:	52                   	push   %edx
 8049125:	50                   	push   %eax
 8049126:	68 cf a1 04 08       	push   $0x804a1cf
 804912b:	ff 75 08             	pushl  0x8(%ebp)
 804912e:	e8 dd f6 ff ff       	call   8048810 <__isoc99_sscanf@plt>
 8049133:	83 c4 20             	add    $0x20,%esp
 8049136:	83 f8 05             	cmp    $0x5,%eax
 8049139:	7f 05                	jg     8049140 <read_six_numbers+0x38>
 804913b:	e8 a0 ff ff ff       	call   80490e0 <explode_bomb>
 8049140:	c9                   	leave  
 8049141:	c3                   	ret    

08049142 <read_line>:
 8049142:	55                   	push   %ebp
 8049143:	89 e5                	mov    %esp,%ebp
 8049145:	57                   	push   %edi
 8049146:	56                   	push   %esi
 8049147:	53                   	push   %ebx
 8049148:	83 ec 0c             	sub    $0xc,%esp
 804914b:	e8 48 ff ff ff       	call   8049098 <skip>
 8049150:	85 c0                	test   %eax,%eax
 8049152:	75 70                	jne    80491c4 <read_line+0x82>
 8049154:	a1 c0 c3 04 08       	mov    0x804c3c0,%eax
 8049159:	39 05 d0 c3 04 08    	cmp    %eax,0x804c3d0
 804915f:	75 19                	jne    804917a <read_line+0x38>
 8049161:	83 ec 0c             	sub    $0xc,%esp
 8049164:	68 e1 a1 04 08       	push   $0x804a1e1
 8049169:	e8 52 f6 ff ff       	call   80487c0 <puts@plt>
 804916e:	c7 04 24 08 00 00 00 	movl   $0x8,(%esp)
 8049175:	e8 66 f6 ff ff       	call   80487e0 <exit@plt>
 804917a:	83 ec 0c             	sub    $0xc,%esp
 804917d:	68 ff a1 04 08       	push   $0x804a1ff
 8049182:	e8 29 f6 ff ff       	call   80487b0 <getenv@plt>
 8049187:	83 c4 10             	add    $0x10,%esp
 804918a:	85 c0                	test   %eax,%eax
 804918c:	74 0a                	je     8049198 <read_line+0x56>
 804918e:	83 ec 0c             	sub    $0xc,%esp
 8049191:	6a 00                	push   $0x0
 8049193:	e8 48 f6 ff ff       	call   80487e0 <exit@plt>
 8049198:	a1 c0 c3 04 08       	mov    0x804c3c0,%eax
 804919d:	a3 d0 c3 04 08       	mov    %eax,0x804c3d0
 80491a2:	e8 f1 fe ff ff       	call   8049098 <skip>
 80491a7:	85 c0                	test   %eax,%eax
 80491a9:	75 19                	jne    80491c4 <read_line+0x82>
 80491ab:	83 ec 0c             	sub    $0xc,%esp
 80491ae:	68 e1 a1 04 08       	push   $0x804a1e1
 80491b3:	e8 08 f6 ff ff       	call   80487c0 <puts@plt>
 80491b8:	c7 04 24 00 00 00 00 	movl   $0x0,(%esp)
 80491bf:	e8 1c f6 ff ff       	call   80487e0 <exit@plt>
 80491c4:	8b 15 cc c3 04 08    	mov    0x804c3cc,%edx
 80491ca:	8d 1c 92             	lea    (%edx,%edx,4),%ebx
 80491cd:	c1 e3 04             	shl    $0x4,%ebx
 80491d0:	81 c3 e0 c3 04 08    	add    $0x804c3e0,%ebx
 80491d6:	b8 00 00 00 00       	mov    $0x0,%eax
 80491db:	b9 ff ff ff ff       	mov    $0xffffffff,%ecx
 80491e0:	89 df                	mov    %ebx,%edi
 80491e2:	f2 ae                	repnz scas %es:(%edi),%al
 80491e4:	f7 d1                	not    %ecx
 80491e6:	83 e9 01             	sub    $0x1,%ecx
 80491e9:	83 f9 4e             	cmp    $0x4e,%ecx
 80491ec:	7e 36                	jle    8049224 <read_line+0xe2>
 80491ee:	83 ec 0c             	sub    $0xc,%esp
 80491f1:	68 0a a2 04 08       	push   $0x804a20a
 80491f6:	e8 c5 f5 ff ff       	call   80487c0 <puts@plt>
 80491fb:	a1 cc c3 04 08       	mov    0x804c3cc,%eax
 8049200:	8d 50 01             	lea    0x1(%eax),%edx
 8049203:	89 15 cc c3 04 08    	mov    %edx,0x804c3cc
 8049209:	6b c0 50             	imul   $0x50,%eax,%eax
 804920c:	05 e0 c3 04 08       	add    $0x804c3e0,%eax
 8049211:	be 25 a2 04 08       	mov    $0x804a225,%esi
 8049216:	b9 04 00 00 00       	mov    $0x4,%ecx
 804921b:	89 c7                	mov    %eax,%edi
 804921d:	f3 a5                	rep movsl %ds:(%esi),%es:(%edi)
 804921f:	e8 bc fe ff ff       	call   80490e0 <explode_bomb>
 8049224:	8d 04 92             	lea    (%edx,%edx,4),%eax
 8049227:	c1 e0 04             	shl    $0x4,%eax
 804922a:	c6 84 01 df c3 04 08 	movb   $0x0,0x804c3df(%ecx,%eax,1)
 8049231:	00 
 8049232:	83 c2 01             	add    $0x1,%edx
 8049235:	89 15 cc c3 04 08    	mov    %edx,0x804c3cc
 804923b:	89 d8                	mov    %ebx,%eax
 804923d:	8d 65 f4             	lea    -0xc(%ebp),%esp
 8049240:	5b                   	pop    %ebx
 8049241:	5e                   	pop    %esi
 8049242:	5f                   	pop    %edi
 8049243:	5d                   	pop    %ebp
 8049244:	c3                   	ret    

08049245 <phase_defused>:
 8049245:	55                   	push   %ebp
 8049246:	89 e5                	mov    %esp,%ebp
 8049248:	83 ec 68             	sub    $0x68,%esp
 804924b:	65 a1 14 00 00 00    	mov    %gs:0x14,%eax
 8049251:	89 45 f4             	mov    %eax,-0xc(%ebp)
 8049254:	31 c0                	xor    %eax,%eax
 8049256:	83 3d cc c3 04 08 06 	cmpl   $0x6,0x804c3cc
 804925d:	75 6f                	jne    80492ce <phase_defused+0x89>
 804925f:	83 ec 0c             	sub    $0xc,%esp
 8049262:	8d 45 a4             	lea    -0x5c(%ebp),%eax
 8049265:	50                   	push   %eax
 8049266:	8d 45 a0             	lea    -0x60(%ebp),%eax
 8049269:	50                   	push   %eax
 804926a:	8d 45 9c             	lea    -0x64(%ebp),%eax
 804926d:	50                   	push   %eax
 804926e:	68 35 a2 04 08       	push   $0x804a235
 8049273:	68 d0 c4 04 08       	push   $0x804c4d0
 8049278:	e8 93 f5 ff ff       	call   8048810 <__isoc99_sscanf@plt>
 804927d:	83 c4 20             	add    $0x20,%esp
 8049280:	83 f8 03             	cmp    $0x3,%eax
 8049283:	75 39                	jne    80492be <phase_defused+0x79>
 8049285:	83 ec 08             	sub    $0x8,%esp
 8049288:	68 3e a2 04 08       	push   $0x804a23e
 804928d:	8d 45 a4             	lea    -0x5c(%ebp),%eax
 8049290:	50                   	push   %eax
 8049291:	e8 47 fd ff ff       	call   8048fdd <strings_not_equal>
 8049296:	83 c4 10             	add    $0x10,%esp
 8049299:	85 c0                	test   %eax,%eax
 804929b:	75 21                	jne    80492be <phase_defused+0x79>
 804929d:	83 ec 0c             	sub    $0xc,%esp
 80492a0:	68 04 a1 04 08       	push   $0x804a104
 80492a5:	e8 16 f5 ff ff       	call   80487c0 <puts@plt>
 80492aa:	c7 04 24 2c a1 04 08 	movl   $0x804a12c,(%esp)
 80492b1:	e8 0a f5 ff ff       	call   80487c0 <puts@plt>
 80492b6:	e8 20 fc ff ff       	call   8048edb <secret_phase>
 80492bb:	83 c4 10             	add    $0x10,%esp
 80492be:	83 ec 0c             	sub    $0xc,%esp
 80492c1:	68 64 a1 04 08       	push   $0x804a164
 80492c6:	e8 f5 f4 ff ff       	call   80487c0 <puts@plt>
 80492cb:	83 c4 10             	add    $0x10,%esp
 80492ce:	8b 45 f4             	mov    -0xc(%ebp),%eax
 80492d1:	65 33 05 14 00 00 00 	xor    %gs:0x14,%eax
 80492d8:	74 05                	je     80492df <phase_defused+0x9a>
 80492da:	e8 b1 f4 ff ff       	call   8048790 <__stack_chk_fail@plt>
 80492df:	c9                   	leave  
 80492e0:	c3                   	ret    

080492e1 <sigalrm_handler>:
 80492e1:	55                   	push   %ebp
 80492e2:	89 e5                	mov    %esp,%ebp
 80492e4:	83 ec 08             	sub    $0x8,%esp
 80492e7:	6a 00                	push   $0x0
 80492e9:	68 94 a2 04 08       	push   $0x804a294
 80492ee:	6a 01                	push   $0x1
 80492f0:	ff 35 a0 c3 04 08    	pushl  0x804c3a0
 80492f6:	e8 65 f5 ff ff       	call   8048860 <__fprintf_chk@plt>
 80492fb:	c7 04 24 01 00 00 00 	movl   $0x1,(%esp)
 8049302:	e8 d9 f4 ff ff       	call   80487e0 <exit@plt>

08049307 <rio_readlineb>:
 8049307:	55                   	push   %ebp
 8049308:	89 e5                	mov    %esp,%ebp
 804930a:	57                   	push   %edi
 804930b:	56                   	push   %esi
 804930c:	53                   	push   %ebx
 804930d:	83 ec 2c             	sub    $0x2c,%esp
 8049310:	89 c3                	mov    %eax,%ebx
 8049312:	89 d7                	mov    %edx,%edi
 8049314:	89 c8                	mov    %ecx,%eax
 8049316:	89 4d cc             	mov    %ecx,-0x34(%ebp)
 8049319:	65 8b 0d 14 00 00 00 	mov    %gs:0x14,%ecx
 8049320:	89 4d e4             	mov    %ecx,-0x1c(%ebp)
 8049323:	31 c9                	xor    %ecx,%ecx
 8049325:	83 f8 01             	cmp    $0x1,%eax
 8049328:	76 7b                	jbe    80493a5 <rio_readlineb+0x9e>
 804932a:	89 45 d0             	mov    %eax,-0x30(%ebp)
 804932d:	c7 45 d4 01 00 00 00 	movl   $0x1,-0x2c(%ebp)
 8049334:	8d 73 0c             	lea    0xc(%ebx),%esi
 8049337:	eb 2d                	jmp    8049366 <rio_readlineb+0x5f>
 8049339:	83 ec 04             	sub    $0x4,%esp
 804933c:	68 00 20 00 00       	push   $0x2000
 8049341:	56                   	push   %esi
 8049342:	ff 33                	pushl  (%ebx)
 8049344:	e8 e7 f3 ff ff       	call   8048730 <read@plt>
 8049349:	89 43 04             	mov    %eax,0x4(%ebx)
 804934c:	83 c4 10             	add    $0x10,%esp
 804934f:	85 c0                	test   %eax,%eax
 8049351:	79 0c                	jns    804935f <rio_readlineb+0x58>
 8049353:	e8 d8 f4 ff ff       	call   8048830 <__errno_location@plt>
 8049358:	83 38 04             	cmpl   $0x4,(%eax)
 804935b:	74 09                	je     8049366 <rio_readlineb+0x5f>
 804935d:	eb 69                	jmp    80493c8 <rio_readlineb+0xc1>
 804935f:	85 c0                	test   %eax,%eax
 8049361:	74 6a                	je     80493cd <rio_readlineb+0xc6>
 8049363:	89 73 08             	mov    %esi,0x8(%ebx)
 8049366:	8b 43 04             	mov    0x4(%ebx),%eax
 8049369:	85 c0                	test   %eax,%eax
 804936b:	7e cc                	jle    8049339 <rio_readlineb+0x32>
 804936d:	8b 4b 08             	mov    0x8(%ebx),%ecx
 8049370:	0f b6 11             	movzbl (%ecx),%edx
 8049373:	88 55 e3             	mov    %dl,-0x1d(%ebp)
 8049376:	83 c1 01             	add    $0x1,%ecx
 8049379:	89 4b 08             	mov    %ecx,0x8(%ebx)
 804937c:	83 e8 01             	sub    $0x1,%eax
 804937f:	89 43 04             	mov    %eax,0x4(%ebx)
 8049382:	83 c7 01             	add    $0x1,%edi
 8049385:	88 57 ff             	mov    %dl,-0x1(%edi)
 8049388:	80 fa 0a             	cmp    $0xa,%dl
 804938b:	75 0a                	jne    8049397 <rio_readlineb+0x90>
 804938d:	eb 25                	jmp    80493b4 <rio_readlineb+0xad>
 804938f:	83 7d d4 01          	cmpl   $0x1,-0x2c(%ebp)
 8049393:	75 1f                	jne    80493b4 <rio_readlineb+0xad>
 8049395:	eb 23                	jmp    80493ba <rio_readlineb+0xb3>
 8049397:	83 45 d4 01          	addl   $0x1,-0x2c(%ebp)
 804939b:	8b 45 d4             	mov    -0x2c(%ebp),%eax
 804939e:	3b 45 d0             	cmp    -0x30(%ebp),%eax
 80493a1:	74 0b                	je     80493ae <rio_readlineb+0xa7>
 80493a3:	eb c1                	jmp    8049366 <rio_readlineb+0x5f>
 80493a5:	c7 45 d4 01 00 00 00 	movl   $0x1,-0x2c(%ebp)
 80493ac:	eb 06                	jmp    80493b4 <rio_readlineb+0xad>
 80493ae:	8b 45 cc             	mov    -0x34(%ebp),%eax
 80493b1:	89 45 d4             	mov    %eax,-0x2c(%ebp)
 80493b4:	c6 07 00             	movb   $0x0,(%edi)
 80493b7:	8b 45 d4             	mov    -0x2c(%ebp),%eax
 80493ba:	8b 4d e4             	mov    -0x1c(%ebp),%ecx
 80493bd:	65 33 0d 14 00 00 00 	xor    %gs:0x14,%ecx
 80493c4:	74 17                	je     80493dd <rio_readlineb+0xd6>
 80493c6:	eb 10                	jmp    80493d8 <rio_readlineb+0xd1>
 80493c8:	b8 ff ff ff ff       	mov    $0xffffffff,%eax
 80493cd:	85 c0                	test   %eax,%eax
 80493cf:	74 be                	je     804938f <rio_readlineb+0x88>
 80493d1:	b8 ff ff ff ff       	mov    $0xffffffff,%eax
 80493d6:	eb e2                	jmp    80493ba <rio_readlineb+0xb3>
 80493d8:	e8 b3 f3 ff ff       	call   8048790 <__stack_chk_fail@plt>
 80493dd:	8d 65 f4             	lea    -0xc(%ebp),%esp
 80493e0:	5b                   	pop    %ebx
 80493e1:	5e                   	pop    %esi
 80493e2:	5f                   	pop    %edi
 80493e3:	5d                   	pop    %ebp
 80493e4:	c3                   	ret    

080493e5 <submitr>:
 80493e5:	55                   	push   %ebp
 80493e6:	89 e5                	mov    %esp,%ebp
 80493e8:	57                   	push   %edi
 80493e9:	56                   	push   %esi
 80493ea:	53                   	push   %ebx
 80493eb:	81 ec 60 a0 00 00    	sub    $0xa060,%esp
 80493f1:	8b 75 08             	mov    0x8(%ebp),%esi
 80493f4:	8b 45 10             	mov    0x10(%ebp),%eax
 80493f7:	89 85 b0 5f ff ff    	mov    %eax,-0xa050(%ebp)
 80493fd:	8b 45 14             	mov    0x14(%ebp),%eax
 8049400:	89 85 ac 5f ff ff    	mov    %eax,-0xa054(%ebp)
 8049406:	8b 45 18             	mov    0x18(%ebp),%eax
 8049409:	89 85 a8 5f ff ff    	mov    %eax,-0xa058(%ebp)
 804940f:	8b 5d 1c             	mov    0x1c(%ebp),%ebx
 8049412:	8b 45 20             	mov    0x20(%ebp),%eax
 8049415:	89 85 a4 5f ff ff    	mov    %eax,-0xa05c(%ebp)
 804941b:	65 a1 14 00 00 00    	mov    %gs:0x14,%eax
 8049421:	89 45 e4             	mov    %eax,-0x1c(%ebp)
 8049424:	31 c0                	xor    %eax,%eax
 8049426:	c7 85 c4 5f ff ff 00 	movl   $0x0,-0xa03c(%ebp)
 804942d:	00 00 00 
 8049430:	6a 00                	push   $0x0
 8049432:	6a 01                	push   $0x1
 8049434:	6a 02                	push   $0x2
 8049436:	e8 15 f4 ff ff       	call   8048850 <socket@plt>
 804943b:	89 85 b4 5f ff ff    	mov    %eax,-0xa04c(%ebp)
 8049441:	83 c4 10             	add    $0x10,%esp
 8049444:	85 c0                	test   %eax,%eax
 8049446:	79 54                	jns    804949c <submitr+0xb7>
 8049448:	8b 85 a4 5f ff ff    	mov    -0xa05c(%ebp),%eax
 804944e:	c7 00 45 72 72 6f    	movl   $0x6f727245,(%eax)
 8049454:	c7 40 04 72 3a 20 43 	movl   $0x43203a72,0x4(%eax)
 804945b:	c7 40 08 6c 69 65 6e 	movl   $0x6e65696c,0x8(%eax)
 8049462:	c7 40 0c 74 20 75 6e 	movl   $0x6e752074,0xc(%eax)
 8049469:	c7 40 10 61 62 6c 65 	movl   $0x656c6261,0x10(%eax)
 8049470:	c7 40 14 20 74 6f 20 	movl   $0x206f7420,0x14(%eax)
 8049477:	c7 40 18 63 72 65 61 	movl   $0x61657263,0x18(%eax)
 804947e:	c7 40 1c 74 65 20 73 	movl   $0x73206574,0x1c(%eax)
 8049485:	c7 40 20 6f 63 6b 65 	movl   $0x656b636f,0x20(%eax)
 804948c:	66 c7 40 24 74 00    	movw   $0x74,0x24(%eax)
 8049492:	b8 ff ff ff ff       	mov    $0xffffffff,%eax
 8049497:	e9 a0 06 00 00       	jmp    8049b3c <submitr+0x757>
 804949c:	83 ec 0c             	sub    $0xc,%esp
 804949f:	56                   	push   %esi
 80494a0:	e8 cb f3 ff ff       	call   8048870 <gethostbyname@plt>
 80494a5:	83 c4 10             	add    $0x10,%esp
 80494a8:	85 c0                	test   %eax,%eax
 80494aa:	75 77                	jne    8049523 <submitr+0x13e>
 80494ac:	8b 85 a4 5f ff ff    	mov    -0xa05c(%ebp),%eax
 80494b2:	c7 00 45 72 72 6f    	movl   $0x6f727245,(%eax)
 80494b8:	c7 40 04 72 3a 20 44 	movl   $0x44203a72,0x4(%eax)
 80494bf:	c7 40 08 4e 53 20 69 	movl   $0x6920534e,0x8(%eax)
 80494c6:	c7 40 0c 73 20 75 6e 	movl   $0x6e752073,0xc(%eax)
 80494cd:	c7 40 10 61 62 6c 65 	movl   $0x656c6261,0x10(%eax)
 80494d4:	c7 40 14 20 74 6f 20 	movl   $0x206f7420,0x14(%eax)
 80494db:	c7 40 18 72 65 73 6f 	movl   $0x6f736572,0x18(%eax)
 80494e2:	c7 40 1c 6c 76 65 20 	movl   $0x2065766c,0x1c(%eax)
 80494e9:	c7 40 20 73 65 72 76 	movl   $0x76726573,0x20(%eax)
 80494f0:	c7 40 24 65 72 20 61 	movl   $0x61207265,0x24(%eax)
 80494f7:	c7 40 28 64 64 72 65 	movl   $0x65726464,0x28(%eax)
 80494fe:	66 c7 40 2c 73 73    	movw   $0x7373,0x2c(%eax)
 8049504:	c6 40 2e 00          	movb   $0x0,0x2e(%eax)
 8049508:	83 ec 0c             	sub    $0xc,%esp
 804950b:	ff b5 b4 5f ff ff    	pushl  -0xa04c(%ebp)
 8049511:	e8 8a f3 ff ff       	call   80488a0 <close@plt>
 8049516:	83 c4 10             	add    $0x10,%esp
 8049519:	b8 ff ff ff ff       	mov    $0xffffffff,%eax
 804951e:	e9 19 06 00 00       	jmp    8049b3c <submitr+0x757>
 8049523:	8d b5 c8 5f ff ff    	lea    -0xa038(%ebp),%esi
 8049529:	c7 85 c8 5f ff ff 00 	movl   $0x0,-0xa038(%ebp)
 8049530:	00 00 00 
 8049533:	c7 85 cc 5f ff ff 00 	movl   $0x0,-0xa034(%ebp)
 804953a:	00 00 00 
 804953d:	c7 85 d0 5f ff ff 00 	movl   $0x0,-0xa030(%ebp)
 8049544:	00 00 00 
 8049547:	c7 85 d4 5f ff ff 00 	movl   $0x0,-0xa02c(%ebp)
 804954e:	00 00 00 
 8049551:	66 c7 85 c8 5f ff ff 	movw   $0x2,-0xa038(%ebp)
 8049558:	02 00 
 804955a:	6a 0c                	push   $0xc
 804955c:	ff 70 0c             	pushl  0xc(%eax)
 804955f:	8b 40 10             	mov    0x10(%eax),%eax
 8049562:	ff 30                	pushl  (%eax)
 8049564:	8d 85 cc 5f ff ff    	lea    -0xa034(%ebp),%eax
 804956a:	50                   	push   %eax
 804956b:	e8 60 f2 ff ff       	call   80487d0 <__memmove_chk@plt>
 8049570:	0f b7 45 0c          	movzwl 0xc(%ebp),%eax
 8049574:	66 c1 c8 08          	ror    $0x8,%ax
 8049578:	66 89 85 ca 5f ff ff 	mov    %ax,-0xa036(%ebp)
 804957f:	83 c4 0c             	add    $0xc,%esp
 8049582:	6a 10                	push   $0x10
 8049584:	56                   	push   %esi
 8049585:	ff b5 b4 5f ff ff    	pushl  -0xa04c(%ebp)
 804958b:	e8 00 f3 ff ff       	call   8048890 <connect@plt>
 8049590:	83 c4 10             	add    $0x10,%esp
 8049593:	85 c0                	test   %eax,%eax
 8049595:	79 69                	jns    8049600 <submitr+0x21b>
 8049597:	8b 85 a4 5f ff ff    	mov    -0xa05c(%ebp),%eax
 804959d:	c7 00 45 72 72 6f    	movl   $0x6f727245,(%eax)
 80495a3:	c7 40 04 72 3a 20 55 	movl   $0x55203a72,0x4(%eax)
 80495aa:	c7 40 08 6e 61 62 6c 	movl   $0x6c62616e,0x8(%eax)
 80495b1:	c7 40 0c 65 20 74 6f 	movl   $0x6f742065,0xc(%eax)
 80495b8:	c7 40 10 20 63 6f 6e 	movl   $0x6e6f6320,0x10(%eax)
 80495bf:	c7 40 14 6e 65 63 74 	movl   $0x7463656e,0x14(%eax)
 80495c6:	c7 40 18 20 74 6f 20 	movl   $0x206f7420,0x18(%eax)
 80495cd:	c7 40 1c 74 68 65 20 	movl   $0x20656874,0x1c(%eax)
 80495d4:	c7 40 20 73 65 72 76 	movl   $0x76726573,0x20(%eax)
 80495db:	66 c7 40 24 65 72    	movw   $0x7265,0x24(%eax)
 80495e1:	c6 40 26 00          	movb   $0x0,0x26(%eax)
 80495e5:	83 ec 0c             	sub    $0xc,%esp
 80495e8:	ff b5 b4 5f ff ff    	pushl  -0xa04c(%ebp)
 80495ee:	e8 ad f2 ff ff       	call   80488a0 <close@plt>
 80495f3:	83 c4 10             	add    $0x10,%esp
 80495f6:	b8 ff ff ff ff       	mov    $0xffffffff,%eax
 80495fb:	e9 3c 05 00 00       	jmp    8049b3c <submitr+0x757>
 8049600:	ba ff ff ff ff       	mov    $0xffffffff,%edx
 8049605:	b8 00 00 00 00       	mov    $0x0,%eax
 804960a:	89 d1                	mov    %edx,%ecx
 804960c:	89 df                	mov    %ebx,%edi
 804960e:	f2 ae                	repnz scas %es:(%edi),%al
 8049610:	89 ce                	mov    %ecx,%esi
 8049612:	f7 d6                	not    %esi
 8049614:	89 d1                	mov    %edx,%ecx
 8049616:	8b bd b0 5f ff ff    	mov    -0xa050(%ebp),%edi
 804961c:	f2 ae                	repnz scas %es:(%edi),%al
 804961e:	89 8d a0 5f ff ff    	mov    %ecx,-0xa060(%ebp)
 8049624:	89 d1                	mov    %edx,%ecx
 8049626:	8b bd ac 5f ff ff    	mov    -0xa054(%ebp),%edi
 804962c:	f2 ae                	repnz scas %es:(%edi),%al
 804962e:	89 cf                	mov    %ecx,%edi
 8049630:	f7 d7                	not    %edi
 8049632:	89 bd 9c 5f ff ff    	mov    %edi,-0xa064(%ebp)
 8049638:	89 d1                	mov    %edx,%ecx
 804963a:	8b bd a8 5f ff ff    	mov    -0xa058(%ebp),%edi
 8049640:	f2 ae                	repnz scas %es:(%edi),%al
 8049642:	8b 95 9c 5f ff ff    	mov    -0xa064(%ebp),%edx
 8049648:	2b 95 a0 5f ff ff    	sub    -0xa060(%ebp),%edx
 804964e:	29 ca                	sub    %ecx,%edx
 8049650:	8d 44 76 fd          	lea    -0x3(%esi,%esi,2),%eax
 8049654:	8d 44 02 7b          	lea    0x7b(%edx,%eax,1),%eax
 8049658:	3d 00 20 00 00       	cmp    $0x2000,%eax
 804965d:	0f 86 82 00 00 00    	jbe    80496e5 <submitr+0x300>
 8049663:	8b 85 a4 5f ff ff    	mov    -0xa05c(%ebp),%eax
 8049669:	c7 00 45 72 72 6f    	movl   $0x6f727245,(%eax)
 804966f:	c7 40 04 72 3a 20 52 	movl   $0x52203a72,0x4(%eax)
 8049676:	c7 40 08 65 73 75 6c 	movl   $0x6c757365,0x8(%eax)
 804967d:	c7 40 0c 74 20 73 74 	movl   $0x74732074,0xc(%eax)
 8049684:	c7 40 10 72 69 6e 67 	movl   $0x676e6972,0x10(%eax)
 804968b:	c7 40 14 20 74 6f 6f 	movl   $0x6f6f7420,0x14(%eax)
 8049692:	c7 40 18 20 6c 61 72 	movl   $0x72616c20,0x18(%eax)
 8049699:	c7 40 1c 67 65 2e 20 	movl   $0x202e6567,0x1c(%eax)
 80496a0:	c7 40 20 49 6e 63 72 	movl   $0x72636e49,0x20(%eax)
 80496a7:	c7 40 24 65 61 73 65 	movl   $0x65736165,0x24(%eax)
 80496ae:	c7 40 28 20 53 55 42 	movl   $0x42555320,0x28(%eax)
 80496b5:	c7 40 2c 4d 49 54 52 	movl   $0x5254494d,0x2c(%eax)
 80496bc:	c7 40 30 5f 4d 41 58 	movl   $0x58414d5f,0x30(%eax)
 80496c3:	c7 40 34 42 55 46 00 	movl   $0x465542,0x34(%eax)
 80496ca:	83 ec 0c             	sub    $0xc,%esp
 80496cd:	ff b5 b4 5f ff ff    	pushl  -0xa04c(%ebp)
 80496d3:	e8 c8 f1 ff ff       	call   80488a0 <close@plt>
 80496d8:	83 c4 10             	add    $0x10,%esp
 80496db:	b8 ff ff ff ff       	mov    $0xffffffff,%eax
 80496e0:	e9 57 04 00 00       	jmp    8049b3c <submitr+0x757>
 80496e5:	8d 95 e4 9f ff ff    	lea    -0x601c(%ebp),%edx
 80496eb:	b9 00 08 00 00       	mov    $0x800,%ecx
 80496f0:	b8 00 00 00 00       	mov    $0x0,%eax
 80496f5:	89 d7                	mov    %edx,%edi
 80496f7:	f3 ab                	rep stos %eax,%es:(%edi)
 80496f9:	b9 ff ff ff ff       	mov    $0xffffffff,%ecx
 80496fe:	89 df                	mov    %ebx,%edi
 8049700:	f2 ae                	repnz scas %es:(%edi),%al
 8049702:	f7 d1                	not    %ecx
 8049704:	89 ce                	mov    %ecx,%esi
 8049706:	83 ee 01             	sub    $0x1,%esi
 8049709:	0f 84 8a 04 00 00    	je     8049b99 <submitr+0x7b4>
 804970f:	89 d7                	mov    %edx,%edi
 8049711:	0f b6 13             	movzbl (%ebx),%edx
 8049714:	8d 4a d6             	lea    -0x2a(%edx),%ecx
 8049717:	b8 01 00 00 00       	mov    $0x1,%eax
 804971c:	80 f9 0f             	cmp    $0xf,%cl
 804971f:	77 0d                	ja     804972e <submitr+0x349>
 8049721:	b8 d9 ff 00 00       	mov    $0xffd9,%eax
 8049726:	d3 e8                	shr    %cl,%eax
 8049728:	83 f0 01             	xor    $0x1,%eax
 804972b:	83 e0 01             	and    $0x1,%eax
 804972e:	80 fa 5f             	cmp    $0x5f,%dl
 8049731:	0f 94 c1             	sete   %cl
 8049734:	38 c1                	cmp    %al,%cl
 8049736:	73 0c                	jae    8049744 <submitr+0x35f>
 8049738:	89 d0                	mov    %edx,%eax
 804973a:	83 e0 df             	and    $0xffffffdf,%eax
 804973d:	83 e8 41             	sub    $0x41,%eax
 8049740:	3c 19                	cmp    $0x19,%al
 8049742:	77 07                	ja     804974b <submitr+0x366>
 8049744:	88 17                	mov    %dl,(%edi)
 8049746:	8d 7f 01             	lea    0x1(%edi),%edi
 8049749:	eb 5c                	jmp    80497a7 <submitr+0x3c2>
 804974b:	80 fa 20             	cmp    $0x20,%dl
 804974e:	75 08                	jne    8049758 <submitr+0x373>
 8049750:	c6 07 2b             	movb   $0x2b,(%edi)
 8049753:	8d 7f 01             	lea    0x1(%edi),%edi
 8049756:	eb 4f                	jmp    80497a7 <submitr+0x3c2>
 8049758:	8d 42 e0             	lea    -0x20(%edx),%eax
 804975b:	3c 5f                	cmp    $0x5f,%al
 804975d:	76 09                	jbe    8049768 <submitr+0x383>
 804975f:	80 fa 09             	cmp    $0x9,%dl
 8049762:	0f 85 e9 03 00 00    	jne    8049b51 <submitr+0x76c>
 8049768:	83 ec 0c             	sub    $0xc,%esp
 804976b:	0f b6 d2             	movzbl %dl,%edx
 804976e:	52                   	push   %edx
 804976f:	68 a0 a3 04 08       	push   $0x804a3a0
 8049774:	6a 08                	push   $0x8
 8049776:	6a 01                	push   $0x1
 8049778:	8d 85 e4 df ff ff    	lea    -0x201c(%ebp),%eax
 804977e:	50                   	push   %eax
 804977f:	e8 3c f1 ff ff       	call   80488c0 <__sprintf_chk@plt>
 8049784:	0f b6 85 e4 df ff ff 	movzbl -0x201c(%ebp),%eax
 804978b:	88 07                	mov    %al,(%edi)
 804978d:	0f b6 85 e5 df ff ff 	movzbl -0x201b(%ebp),%eax
 8049794:	88 47 01             	mov    %al,0x1(%edi)
 8049797:	0f b6 85 e6 df ff ff 	movzbl -0x201a(%ebp),%eax
 804979e:	88 47 02             	mov    %al,0x2(%edi)
 80497a1:	83 c4 20             	add    $0x20,%esp
 80497a4:	8d 7f 03             	lea    0x3(%edi),%edi
 80497a7:	83 c3 01             	add    $0x1,%ebx
 80497aa:	83 ee 01             	sub    $0x1,%esi
 80497ad:	0f 85 5e ff ff ff    	jne    8049711 <submitr+0x32c>
 80497b3:	e9 e1 03 00 00       	jmp    8049b99 <submitr+0x7b4>
 80497b8:	89 bd b0 5f ff ff    	mov    %edi,-0xa050(%ebp)
 80497be:	8b bd b4 5f ff ff    	mov    -0xa04c(%ebp),%edi
 80497c4:	83 ec 04             	sub    $0x4,%esp
 80497c7:	53                   	push   %ebx
 80497c8:	56                   	push   %esi
 80497c9:	57                   	push   %edi
 80497ca:	e8 31 f0 ff ff       	call   8048800 <write@plt>
 80497cf:	83 c4 10             	add    $0x10,%esp
 80497d2:	85 c0                	test   %eax,%eax
 80497d4:	7f 0f                	jg     80497e5 <submitr+0x400>
 80497d6:	e8 55 f0 ff ff       	call   8048830 <__errno_location@plt>
 80497db:	83 38 04             	cmpl   $0x4,(%eax)
 80497de:	75 15                	jne    80497f5 <submitr+0x410>
 80497e0:	b8 00 00 00 00       	mov    $0x0,%eax
 80497e5:	01 c6                	add    %eax,%esi
 80497e7:	29 c3                	sub    %eax,%ebx
 80497e9:	75 d9                	jne    80497c4 <submitr+0x3df>
 80497eb:	8b bd b0 5f ff ff    	mov    -0xa050(%ebp),%edi
 80497f1:	85 ff                	test   %edi,%edi
 80497f3:	79 6d                	jns    8049862 <submitr+0x47d>
 80497f5:	8b 85 a4 5f ff ff    	mov    -0xa05c(%ebp),%eax
 80497fb:	c7 00 45 72 72 6f    	movl   $0x6f727245,(%eax)
 8049801:	c7 40 04 72 3a 20 43 	movl   $0x43203a72,0x4(%eax)
 8049808:	c7 40 08 6c 69 65 6e 	movl   $0x6e65696c,0x8(%eax)
 804980f:	c7 40 0c 74 20 75 6e 	movl   $0x6e752074,0xc(%eax)
 8049816:	c7 40 10 61 62 6c 65 	movl   $0x656c6261,0x10(%eax)
 804981d:	c7 40 14 20 74 6f 20 	movl   $0x206f7420,0x14(%eax)
 8049824:	c7 40 18 77 72 69 74 	movl   $0x74697277,0x18(%eax)
 804982b:	c7 40 1c 65 20 74 6f 	movl   $0x6f742065,0x1c(%eax)
 8049832:	c7 40 20 20 74 68 65 	movl   $0x65687420,0x20(%eax)
 8049839:	c7 40 24 20 73 65 72 	movl   $0x72657320,0x24(%eax)
 8049840:	c7 40 28 76 65 72 00 	movl   $0x726576,0x28(%eax)
 8049847:	83 ec 0c             	sub    $0xc,%esp
 804984a:	ff b5 b4 5f ff ff    	pushl  -0xa04c(%ebp)
 8049850:	e8 4b f0 ff ff       	call   80488a0 <close@plt>
 8049855:	83 c4 10             	add    $0x10,%esp
 8049858:	b8 ff ff ff ff       	mov    $0xffffffff,%eax
 804985d:	e9 da 02 00 00       	jmp    8049b3c <submitr+0x757>
 8049862:	8b 85 b4 5f ff ff    	mov    -0xa04c(%ebp),%eax
 8049868:	89 85 d8 5f ff ff    	mov    %eax,-0xa028(%ebp)
 804986e:	c7 85 dc 5f ff ff 00 	movl   $0x0,-0xa024(%ebp)
 8049875:	00 00 00 
 8049878:	8d 85 e4 5f ff ff    	lea    -0xa01c(%ebp),%eax
 804987e:	89 85 e0 5f ff ff    	mov    %eax,-0xa020(%ebp)
 8049884:	b9 00 20 00 00       	mov    $0x2000,%ecx
 8049889:	8d 95 e4 7f ff ff    	lea    -0x801c(%ebp),%edx
 804988f:	8d 85 d8 5f ff ff    	lea    -0xa028(%ebp),%eax
 8049895:	e8 6d fa ff ff       	call   8049307 <rio_readlineb>
 804989a:	85 c0                	test   %eax,%eax
 804989c:	0f 8f 81 00 00 00    	jg     8049923 <submitr+0x53e>
 80498a2:	8b 85 a4 5f ff ff    	mov    -0xa05c(%ebp),%eax
 80498a8:	c7 00 45 72 72 6f    	movl   $0x6f727245,(%eax)
 80498ae:	c7 40 04 72 3a 20 43 	movl   $0x43203a72,0x4(%eax)
 80498b5:	c7 40 08 6c 69 65 6e 	movl   $0x6e65696c,0x8(%eax)
 80498bc:	c7 40 0c 74 20 75 6e 	movl   $0x6e752074,0xc(%eax)
 80498c3:	c7 40 10 61 62 6c 65 	movl   $0x656c6261,0x10(%eax)
 80498ca:	c7 40 14 20 74 6f 20 	movl   $0x206f7420,0x14(%eax)
 80498d1:	c7 40 18 72 65 61 64 	movl   $0x64616572,0x18(%eax)
 80498d8:	c7 40 1c 20 66 69 72 	movl   $0x72696620,0x1c(%eax)
 80498df:	c7 40 20 73 74 20 68 	movl   $0x68207473,0x20(%eax)
 80498e6:	c7 40 24 65 61 64 65 	movl   $0x65646165,0x24(%eax)
 80498ed:	c7 40 28 72 20 66 72 	movl   $0x72662072,0x28(%eax)
 80498f4:	c7 40 2c 6f 6d 20 73 	movl   $0x73206d6f,0x2c(%eax)
 80498fb:	c7 40 30 65 72 76 65 	movl   $0x65767265,0x30(%eax)
 8049902:	66 c7 40 34 72 00    	movw   $0x72,0x34(%eax)
 8049908:	83 ec 0c             	sub    $0xc,%esp
 804990b:	ff b5 b4 5f ff ff    	pushl  -0xa04c(%ebp)
 8049911:	e8 8a ef ff ff       	call   80488a0 <close@plt>
 8049916:	83 c4 10             	add    $0x10,%esp
 8049919:	b8 ff ff ff ff       	mov    $0xffffffff,%eax
 804991e:	e9 19 02 00 00       	jmp    8049b3c <submitr+0x757>
 8049923:	83 ec 0c             	sub    $0xc,%esp
 8049926:	8d 85 e4 df ff ff    	lea    -0x201c(%ebp),%eax
 804992c:	50                   	push   %eax
 804992d:	8d 85 c4 5f ff ff    	lea    -0xa03c(%ebp),%eax
 8049933:	50                   	push   %eax
 8049934:	8d 85 e4 bf ff ff    	lea    -0x401c(%ebp),%eax
 804993a:	50                   	push   %eax
 804993b:	68 a7 a3 04 08       	push   $0x804a3a7
 8049940:	8d 85 e4 7f ff ff    	lea    -0x801c(%ebp),%eax
 8049946:	50                   	push   %eax
 8049947:	e8 c4 ee ff ff       	call   8048810 <__isoc99_sscanf@plt>
 804994c:	8b 85 c4 5f ff ff    	mov    -0xa03c(%ebp),%eax
 8049952:	83 c4 20             	add    $0x20,%esp
 8049955:	3d c8 00 00 00       	cmp    $0xc8,%eax
 804995a:	0f 84 cc 00 00 00    	je     8049a2c <submitr+0x647>
 8049960:	83 ec 08             	sub    $0x8,%esp
 8049963:	8d 95 e4 df ff ff    	lea    -0x201c(%ebp),%edx
 8049969:	52                   	push   %edx
 804996a:	50                   	push   %eax
 804996b:	68 b8 a2 04 08       	push   $0x804a2b8
 8049970:	6a ff                	push   $0xffffffff
 8049972:	6a 01                	push   $0x1
 8049974:	ff b5 a4 5f ff ff    	pushl  -0xa05c(%ebp)
 804997a:	e8 41 ef ff ff       	call   80488c0 <__sprintf_chk@plt>
 804997f:	83 c4 14             	add    $0x14,%esp
 8049982:	ff b5 b4 5f ff ff    	pushl  -0xa04c(%ebp)
 8049988:	e8 13 ef ff ff       	call   80488a0 <close@plt>
 804998d:	83 c4 10             	add    $0x10,%esp
 8049990:	b8 ff ff ff ff       	mov    $0xffffffff,%eax
 8049995:	e9 a2 01 00 00       	jmp    8049b3c <submitr+0x757>
 804999a:	b9 00 20 00 00       	mov    $0x2000,%ecx
 804999f:	8d 95 e4 7f ff ff    	lea    -0x801c(%ebp),%edx
 80499a5:	8d 85 d8 5f ff ff    	lea    -0xa028(%ebp),%eax
 80499ab:	e8 57 f9 ff ff       	call   8049307 <rio_readlineb>
 80499b0:	85 c0                	test   %eax,%eax
 80499b2:	7f 78                	jg     8049a2c <submitr+0x647>
 80499b4:	8b 85 a4 5f ff ff    	mov    -0xa05c(%ebp),%eax
 80499ba:	c7 00 45 72 72 6f    	movl   $0x6f727245,(%eax)
 80499c0:	c7 40 04 72 3a 20 43 	movl   $0x43203a72,0x4(%eax)
 80499c7:	c7 40 08 6c 69 65 6e 	movl   $0x6e65696c,0x8(%eax)
 80499ce:	c7 40 0c 74 20 75 6e 	movl   $0x6e752074,0xc(%eax)
 80499d5:	c7 40 10 61 62 6c 65 	movl   $0x656c6261,0x10(%eax)
 80499dc:	c7 40 14 20 74 6f 20 	movl   $0x206f7420,0x14(%eax)
 80499e3:	c7 40 18 72 65 61 64 	movl   $0x64616572,0x18(%eax)
 80499ea:	c7 40 1c 20 68 65 61 	movl   $0x61656820,0x1c(%eax)
 80499f1:	c7 40 20 64 65 72 73 	movl   $0x73726564,0x20(%eax)
 80499f8:	c7 40 24 20 66 72 6f 	movl   $0x6f726620,0x24(%eax)
 80499ff:	c7 40 28 6d 20 73 65 	movl   $0x6573206d,0x28(%eax)
 8049a06:	c7 40 2c 72 76 65 72 	movl   $0x72657672,0x2c(%eax)
 8049a0d:	c6 40 30 00          	movb   $0x0,0x30(%eax)
 8049a11:	83 ec 0c             	sub    $0xc,%esp
 8049a14:	ff b5 b4 5f ff ff    	pushl  -0xa04c(%ebp)
 8049a1a:	e8 81 ee ff ff       	call   80488a0 <close@plt>
 8049a1f:	83 c4 10             	add    $0x10,%esp
 8049a22:	b8 ff ff ff ff       	mov    $0xffffffff,%eax
 8049a27:	e9 10 01 00 00       	jmp    8049b3c <submitr+0x757>
 8049a2c:	80 bd e4 7f ff ff 0d 	cmpb   $0xd,-0x801c(%ebp)
 8049a33:	0f 85 61 ff ff ff    	jne    804999a <submitr+0x5b5>
 8049a39:	80 bd e5 7f ff ff 0a 	cmpb   $0xa,-0x801b(%ebp)
 8049a40:	0f 85 54 ff ff ff    	jne    804999a <submitr+0x5b5>
 8049a46:	80 bd e6 7f ff ff 00 	cmpb   $0x0,-0x801a(%ebp)
 8049a4d:	0f 85 47 ff ff ff    	jne    804999a <submitr+0x5b5>
 8049a53:	b9 00 20 00 00       	mov    $0x2000,%ecx
 8049a58:	8d 95 e4 7f ff ff    	lea    -0x801c(%ebp),%edx
 8049a5e:	8d 85 d8 5f ff ff    	lea    -0xa028(%ebp),%eax
 8049a64:	e8 9e f8 ff ff       	call   8049307 <rio_readlineb>
 8049a69:	85 c0                	test   %eax,%eax
 8049a6b:	7f 7f                	jg     8049aec <submitr+0x707>
 8049a6d:	8b 85 a4 5f ff ff    	mov    -0xa05c(%ebp),%eax
 8049a73:	c7 00 45 72 72 6f    	movl   $0x6f727245,(%eax)
 8049a79:	c7 40 04 72 3a 20 43 	movl   $0x43203a72,0x4(%eax)
 8049a80:	c7 40 08 6c 69 65 6e 	movl   $0x6e65696c,0x8(%eax)
 8049a87:	c7 40 0c 74 20 75 6e 	movl   $0x6e752074,0xc(%eax)
 8049a8e:	c7 40 10 61 62 6c 65 	movl   $0x656c6261,0x10(%eax)
 8049a95:	c7 40 14 20 74 6f 20 	movl   $0x206f7420,0x14(%eax)
 8049a9c:	c7 40 18 72 65 61 64 	movl   $0x64616572,0x18(%eax)
 8049aa3:	c7 40 1c 20 73 74 61 	movl   $0x61747320,0x1c(%eax)
 8049aaa:	c7 40 20 74 75 73 20 	movl   $0x20737574,0x20(%eax)
 8049ab1:	c7 40 24 6d 65 73 73 	movl   $0x7373656d,0x24(%eax)
 8049ab8:	c7 40 28 61 67 65 20 	movl   $0x20656761,0x28(%eax)
 8049abf:	c7 40 2c 66 72 6f 6d 	movl   $0x6d6f7266,0x2c(%eax)
 8049ac6:	c7 40 30 20 73 65 72 	movl   $0x72657320,0x30(%eax)
 8049acd:	c7 40 34 76 65 72 00 	movl   $0x726576,0x34(%eax)
 8049ad4:	83 ec 0c             	sub    $0xc,%esp
 8049ad7:	ff b5 b4 5f ff ff    	pushl  -0xa04c(%ebp)
 8049add:	e8 be ed ff ff       	call   80488a0 <close@plt>
 8049ae2:	83 c4 10             	add    $0x10,%esp
 8049ae5:	b8 ff ff ff ff       	mov    $0xffffffff,%eax
 8049aea:	eb 50                	jmp    8049b3c <submitr+0x757>
 8049aec:	83 ec 08             	sub    $0x8,%esp
 8049aef:	8d 85 e4 7f ff ff    	lea    -0x801c(%ebp),%eax
 8049af5:	50                   	push   %eax
 8049af6:	8b b5 a4 5f ff ff    	mov    -0xa05c(%ebp),%esi
 8049afc:	56                   	push   %esi
 8049afd:	e8 9e ec ff ff       	call   80487a0 <strcpy@plt>
 8049b02:	83 c4 04             	add    $0x4,%esp
 8049b05:	ff b5 b4 5f ff ff    	pushl  -0xa04c(%ebp)
 8049b0b:	e8 90 ed ff ff       	call   80488a0 <close@plt>
 8049b10:	0f b6 16             	movzbl (%esi),%edx
 8049b13:	b8 4f 00 00 00       	mov    $0x4f,%eax
 8049b18:	83 c4 10             	add    $0x10,%esp
 8049b1b:	29 d0                	sub    %edx,%eax
 8049b1d:	75 13                	jne    8049b32 <submitr+0x74d>
 8049b1f:	0f b6 56 01          	movzbl 0x1(%esi),%edx
 8049b23:	b8 4b 00 00 00       	mov    $0x4b,%eax
 8049b28:	29 d0                	sub    %edx,%eax
 8049b2a:	75 06                	jne    8049b32 <submitr+0x74d>
 8049b2c:	0f b6 46 02          	movzbl 0x2(%esi),%eax
 8049b30:	f7 d8                	neg    %eax
 8049b32:	85 c0                	test   %eax,%eax
 8049b34:	0f 95 c0             	setne  %al
 8049b37:	0f b6 c0             	movzbl %al,%eax
 8049b3a:	f7 d8                	neg    %eax
 8049b3c:	8b 75 e4             	mov    -0x1c(%ebp),%esi
 8049b3f:	65 33 35 14 00 00 00 	xor    %gs:0x14,%esi
 8049b46:	0f 84 ae 00 00 00    	je     8049bfa <submitr+0x815>
 8049b4c:	e9 a4 00 00 00       	jmp    8049bf5 <submitr+0x810>
 8049b51:	a1 e8 a2 04 08       	mov    0x804a2e8,%eax
 8049b56:	8b b5 a4 5f ff ff    	mov    -0xa05c(%ebp),%esi
 8049b5c:	89 06                	mov    %eax,(%esi)
 8049b5e:	a1 27 a3 04 08       	mov    0x804a327,%eax
 8049b63:	89 46 3f             	mov    %eax,0x3f(%esi)
 8049b66:	8d 7e 04             	lea    0x4(%esi),%edi
 8049b69:	83 e7 fc             	and    $0xfffffffc,%edi
 8049b6c:	29 fe                	sub    %edi,%esi
 8049b6e:	89 f0                	mov    %esi,%eax
 8049b70:	be e8 a2 04 08       	mov    $0x804a2e8,%esi
 8049b75:	29 c6                	sub    %eax,%esi
 8049b77:	83 c0 43             	add    $0x43,%eax
 8049b7a:	c1 e8 02             	shr    $0x2,%eax
 8049b7d:	89 c1                	mov    %eax,%ecx
 8049b7f:	f3 a5                	rep movsl %ds:(%esi),%es:(%edi)
 8049b81:	83 ec 0c             	sub    $0xc,%esp
 8049b84:	ff b5 b4 5f ff ff    	pushl  -0xa04c(%ebp)
 8049b8a:	e8 11 ed ff ff       	call   80488a0 <close@plt>
 8049b8f:	83 c4 10             	add    $0x10,%esp
 8049b92:	b8 ff ff ff ff       	mov    $0xffffffff,%eax
 8049b97:	eb a3                	jmp    8049b3c <submitr+0x757>
 8049b99:	8d 85 e4 9f ff ff    	lea    -0x601c(%ebp),%eax
 8049b9f:	50                   	push   %eax
 8049ba0:	ff b5 a8 5f ff ff    	pushl  -0xa058(%ebp)
 8049ba6:	ff b5 ac 5f ff ff    	pushl  -0xa054(%ebp)
 8049bac:	ff b5 b0 5f ff ff    	pushl  -0xa050(%ebp)
 8049bb2:	68 2c a3 04 08       	push   $0x804a32c
 8049bb7:	68 00 20 00 00       	push   $0x2000
 8049bbc:	6a 01                	push   $0x1
 8049bbe:	8d bd e4 7f ff ff    	lea    -0x801c(%ebp),%edi
 8049bc4:	57                   	push   %edi
 8049bc5:	e8 f6 ec ff ff       	call   80488c0 <__sprintf_chk@plt>
 8049bca:	b8 00 00 00 00       	mov    $0x0,%eax
 8049bcf:	b9 ff ff ff ff       	mov    $0xffffffff,%ecx
 8049bd4:	f2 ae                	repnz scas %es:(%edi),%al
 8049bd6:	89 cf                	mov    %ecx,%edi
 8049bd8:	f7 d7                	not    %edi
 8049bda:	83 ef 01             	sub    $0x1,%edi
 8049bdd:	83 c4 20             	add    $0x20,%esp
 8049be0:	89 fb                	mov    %edi,%ebx
 8049be2:	8d b5 e4 7f ff ff    	lea    -0x801c(%ebp),%esi
 8049be8:	85 ff                	test   %edi,%edi
 8049bea:	0f 85 c8 fb ff ff    	jne    80497b8 <submitr+0x3d3>
 8049bf0:	e9 6d fc ff ff       	jmp    8049862 <submitr+0x47d>
 8049bf5:	e8 96 eb ff ff       	call   8048790 <__stack_chk_fail@plt>
 8049bfa:	8d 65 f4             	lea    -0xc(%ebp),%esp
 8049bfd:	5b                   	pop    %ebx
 8049bfe:	5e                   	pop    %esi
 8049bff:	5f                   	pop    %edi
 8049c00:	5d                   	pop    %ebp
 8049c01:	c3                   	ret    

08049c02 <init_timeout>:
 8049c02:	55                   	push   %ebp
 8049c03:	89 e5                	mov    %esp,%ebp
 8049c05:	53                   	push   %ebx
 8049c06:	83 ec 04             	sub    $0x4,%esp
 8049c09:	8b 5d 08             	mov    0x8(%ebp),%ebx
 8049c0c:	85 db                	test   %ebx,%ebx
 8049c0e:	74 24                	je     8049c34 <init_timeout+0x32>
 8049c10:	83 ec 08             	sub    $0x8,%esp
 8049c13:	68 e1 92 04 08       	push   $0x80492e1
 8049c18:	6a 0e                	push   $0xe
 8049c1a:	e8 41 eb ff ff       	call   8048760 <signal@plt>
 8049c1f:	85 db                	test   %ebx,%ebx
 8049c21:	b8 00 00 00 00       	mov    $0x0,%eax
 8049c26:	0f 48 d8             	cmovs  %eax,%ebx
 8049c29:	89 1c 24             	mov    %ebx,(%esp)
 8049c2c:	e8 4f eb ff ff       	call   8048780 <alarm@plt>
 8049c31:	83 c4 10             	add    $0x10,%esp
 8049c34:	8b 5d fc             	mov    -0x4(%ebp),%ebx
 8049c37:	c9                   	leave  
 8049c38:	c3                   	ret    

08049c39 <init_driver>:
 8049c39:	55                   	push   %ebp
 8049c3a:	89 e5                	mov    %esp,%ebp
 8049c3c:	57                   	push   %edi
 8049c3d:	56                   	push   %esi
 8049c3e:	53                   	push   %ebx
 8049c3f:	83 ec 34             	sub    $0x34,%esp
 8049c42:	8b 75 08             	mov    0x8(%ebp),%esi
 8049c45:	65 a1 14 00 00 00    	mov    %gs:0x14,%eax
 8049c4b:	89 45 e4             	mov    %eax,-0x1c(%ebp)
 8049c4e:	31 c0                	xor    %eax,%eax
 8049c50:	6a 01                	push   $0x1
 8049c52:	6a 0d                	push   $0xd
 8049c54:	e8 07 eb ff ff       	call   8048760 <signal@plt>
 8049c59:	83 c4 08             	add    $0x8,%esp
 8049c5c:	6a 01                	push   $0x1
 8049c5e:	6a 1d                	push   $0x1d
 8049c60:	e8 fb ea ff ff       	call   8048760 <signal@plt>
 8049c65:	83 c4 08             	add    $0x8,%esp
 8049c68:	6a 01                	push   $0x1
 8049c6a:	6a 1d                	push   $0x1d
 8049c6c:	e8 ef ea ff ff       	call   8048760 <signal@plt>
 8049c71:	83 c4 0c             	add    $0xc,%esp
 8049c74:	6a 00                	push   $0x0
 8049c76:	6a 01                	push   $0x1
 8049c78:	6a 02                	push   $0x2
 8049c7a:	e8 d1 eb ff ff       	call   8048850 <socket@plt>
 8049c7f:	83 c4 10             	add    $0x10,%esp
 8049c82:	85 c0                	test   %eax,%eax
 8049c84:	79 4e                	jns    8049cd4 <init_driver+0x9b>
 8049c86:	c7 06 45 72 72 6f    	movl   $0x6f727245,(%esi)
 8049c8c:	c7 46 04 72 3a 20 43 	movl   $0x43203a72,0x4(%esi)
 8049c93:	c7 46 08 6c 69 65 6e 	movl   $0x6e65696c,0x8(%esi)
 8049c9a:	c7 46 0c 74 20 75 6e 	movl   $0x6e752074,0xc(%esi)
 8049ca1:	c7 46 10 61 62 6c 65 	movl   $0x656c6261,0x10(%esi)
 8049ca8:	c7 46 14 20 74 6f 20 	movl   $0x206f7420,0x14(%esi)
 8049caf:	c7 46 18 63 72 65 61 	movl   $0x61657263,0x18(%esi)
 8049cb6:	c7 46 1c 74 65 20 73 	movl   $0x73206574,0x1c(%esi)
 8049cbd:	c7 46 20 6f 63 6b 65 	movl   $0x656b636f,0x20(%esi)
 8049cc4:	66 c7 46 24 74 00    	movw   $0x74,0x24(%esi)
 8049cca:	b8 ff ff ff ff       	mov    $0xffffffff,%eax
 8049ccf:	e9 17 01 00 00       	jmp    8049deb <init_driver+0x1b2>
 8049cd4:	89 c3                	mov    %eax,%ebx
 8049cd6:	83 ec 0c             	sub    $0xc,%esp
 8049cd9:	68 b8 a3 04 08       	push   $0x804a3b8
 8049cde:	e8 8d eb ff ff       	call   8048870 <gethostbyname@plt>
 8049ce3:	83 c4 10             	add    $0x10,%esp
 8049ce6:	85 c0                	test   %eax,%eax
 8049ce8:	75 6c                	jne    8049d56 <init_driver+0x11d>
 8049cea:	c7 06 45 72 72 6f    	movl   $0x6f727245,(%esi)
 8049cf0:	c7 46 04 72 3a 20 44 	movl   $0x44203a72,0x4(%esi)
 8049cf7:	c7 46 08 4e 53 20 69 	movl   $0x6920534e,0x8(%esi)
 8049cfe:	c7 46 0c 73 20 75 6e 	movl   $0x6e752073,0xc(%esi)
 8049d05:	c7 46 10 61 62 6c 65 	movl   $0x656c6261,0x10(%esi)
 8049d0c:	c7 46 14 20 74 6f 20 	movl   $0x206f7420,0x14(%esi)
 8049d13:	c7 46 18 72 65 73 6f 	movl   $0x6f736572,0x18(%esi)
 8049d1a:	c7 46 1c 6c 76 65 20 	movl   $0x2065766c,0x1c(%esi)
 8049d21:	c7 46 20 73 65 72 76 	movl   $0x76726573,0x20(%esi)
 8049d28:	c7 46 24 65 72 20 61 	movl   $0x61207265,0x24(%esi)
 8049d2f:	c7 46 28 64 64 72 65 	movl   $0x65726464,0x28(%esi)
 8049d36:	66 c7 46 2c 73 73    	movw   $0x7373,0x2c(%esi)
 8049d3c:	c6 46 2e 00          	movb   $0x0,0x2e(%esi)
 8049d40:	83 ec 0c             	sub    $0xc,%esp
 8049d43:	53                   	push   %ebx
 8049d44:	e8 57 eb ff ff       	call   80488a0 <close@plt>
 8049d49:	83 c4 10             	add    $0x10,%esp
 8049d4c:	b8 ff ff ff ff       	mov    $0xffffffff,%eax
 8049d51:	e9 95 00 00 00       	jmp    8049deb <init_driver+0x1b2>
 8049d56:	8d 7d d4             	lea    -0x2c(%ebp),%edi
 8049d59:	c7 45 d4 00 00 00 00 	movl   $0x0,-0x2c(%ebp)
 8049d60:	c7 45 d8 00 00 00 00 	movl   $0x0,-0x28(%ebp)
 8049d67:	c7 45 dc 00 00 00 00 	movl   $0x0,-0x24(%ebp)
 8049d6e:	c7 45 e0 00 00 00 00 	movl   $0x0,-0x20(%ebp)
 8049d75:	66 c7 45 d4 02 00    	movw   $0x2,-0x2c(%ebp)
 8049d7b:	6a 0c                	push   $0xc
 8049d7d:	ff 70 0c             	pushl  0xc(%eax)
 8049d80:	8b 40 10             	mov    0x10(%eax),%eax
 8049d83:	ff 30                	pushl  (%eax)
 8049d85:	8d 45 d8             	lea    -0x28(%ebp),%eax
 8049d88:	50                   	push   %eax
 8049d89:	e8 42 ea ff ff       	call   80487d0 <__memmove_chk@plt>
 8049d8e:	66 c7 45 d6 3b 6e    	movw   $0x6e3b,-0x2a(%ebp)
 8049d94:	83 c4 0c             	add    $0xc,%esp
 8049d97:	6a 10                	push   $0x10
 8049d99:	57                   	push   %edi
 8049d9a:	53                   	push   %ebx
 8049d9b:	e8 f0 ea ff ff       	call   8048890 <connect@plt>
 8049da0:	83 c4 10             	add    $0x10,%esp
 8049da3:	85 c0                	test   %eax,%eax
 8049da5:	79 2a                	jns    8049dd1 <init_driver+0x198>
 8049da7:	83 ec 0c             	sub    $0xc,%esp
 8049daa:	68 b8 a3 04 08       	push   $0x804a3b8
 8049daf:	68 78 a3 04 08       	push   $0x804a378
 8049db4:	6a ff                	push   $0xffffffff
 8049db6:	6a 01                	push   $0x1
 8049db8:	56                   	push   %esi
 8049db9:	e8 02 eb ff ff       	call   80488c0 <__sprintf_chk@plt>
 8049dbe:	83 c4 14             	add    $0x14,%esp
 8049dc1:	53                   	push   %ebx
 8049dc2:	e8 d9 ea ff ff       	call   80488a0 <close@plt>
 8049dc7:	83 c4 10             	add    $0x10,%esp
 8049dca:	b8 ff ff ff ff       	mov    $0xffffffff,%eax
 8049dcf:	eb 1a                	jmp    8049deb <init_driver+0x1b2>
 8049dd1:	83 ec 0c             	sub    $0xc,%esp
 8049dd4:	53                   	push   %ebx
 8049dd5:	e8 c6 ea ff ff       	call   80488a0 <close@plt>
 8049dda:	66 c7 06 4f 4b       	movw   $0x4b4f,(%esi)
 8049ddf:	c6 46 02 00          	movb   $0x0,0x2(%esi)
 8049de3:	83 c4 10             	add    $0x10,%esp
 8049de6:	b8 00 00 00 00       	mov    $0x0,%eax
 8049deb:	8b 55 e4             	mov    -0x1c(%ebp),%edx
 8049dee:	65 33 15 14 00 00 00 	xor    %gs:0x14,%edx
 8049df5:	74 05                	je     8049dfc <init_driver+0x1c3>
 8049df7:	e8 94 e9 ff ff       	call   8048790 <__stack_chk_fail@plt>
 8049dfc:	8d 65 f4             	lea    -0xc(%ebp),%esp
 8049dff:	5b                   	pop    %ebx
 8049e00:	5e                   	pop    %esi
 8049e01:	5f                   	pop    %edi
 8049e02:	5d                   	pop    %ebp
 8049e03:	c3                   	ret    

08049e04 <driver_post>:
 8049e04:	55                   	push   %ebp
 8049e05:	89 e5                	mov    %esp,%ebp
 8049e07:	53                   	push   %ebx
 8049e08:	83 ec 04             	sub    $0x4,%esp
 8049e0b:	8b 45 08             	mov    0x8(%ebp),%eax
 8049e0e:	8b 5d 14             	mov    0x14(%ebp),%ebx
 8049e11:	83 7d 10 00          	cmpl   $0x0,0x10(%ebp)
 8049e15:	74 25                	je     8049e3c <driver_post+0x38>
 8049e17:	83 ec 04             	sub    $0x4,%esp
 8049e1a:	ff 75 0c             	pushl  0xc(%ebp)
 8049e1d:	68 c6 a3 04 08       	push   $0x804a3c6
 8049e22:	6a 01                	push   $0x1
 8049e24:	e8 17 ea ff ff       	call   8048840 <__printf_chk@plt>
 8049e29:	66 c7 03 4f 4b       	movw   $0x4b4f,(%ebx)
 8049e2e:	c6 43 02 00          	movb   $0x0,0x2(%ebx)
 8049e32:	83 c4 10             	add    $0x10,%esp
 8049e35:	b8 00 00 00 00       	mov    $0x0,%eax
 8049e3a:	eb 3d                	jmp    8049e79 <driver_post+0x75>
 8049e3c:	85 c0                	test   %eax,%eax
 8049e3e:	74 2b                	je     8049e6b <driver_post+0x67>
 8049e40:	80 38 00             	cmpb   $0x0,(%eax)
 8049e43:	74 26                	je     8049e6b <driver_post+0x67>
 8049e45:	83 ec 04             	sub    $0x4,%esp
 8049e48:	53                   	push   %ebx
 8049e49:	ff 75 0c             	pushl  0xc(%ebp)
 8049e4c:	68 dd a3 04 08       	push   $0x804a3dd
 8049e51:	50                   	push   %eax
 8049e52:	68 ec a3 04 08       	push   $0x804a3ec
 8049e57:	68 6e 3b 00 00       	push   $0x3b6e
 8049e5c:	68 b8 a3 04 08       	push   $0x804a3b8
 8049e61:	e8 7f f5 ff ff       	call   80493e5 <submitr>
 8049e66:	83 c4 20             	add    $0x20,%esp
 8049e69:	eb 0e                	jmp    8049e79 <driver_post+0x75>
 8049e6b:	66 c7 03 4f 4b       	movw   $0x4b4f,(%ebx)
 8049e70:	c6 43 02 00          	movb   $0x0,0x2(%ebx)
 8049e74:	b8 00 00 00 00       	mov    $0x0,%eax
 8049e79:	8b 5d fc             	mov    -0x4(%ebp),%ebx
 8049e7c:	c9                   	leave  
 8049e7d:	c3                   	ret    
 8049e7e:	66 90                	xchg   %ax,%ax

08049e80 <__libc_csu_init>:
 8049e80:	55                   	push   %ebp
 8049e81:	57                   	push   %edi
 8049e82:	56                   	push   %esi
 8049e83:	53                   	push   %ebx
 8049e84:	e8 87 ea ff ff       	call   8048910 <__x86.get_pc_thunk.bx>
 8049e89:	81 c3 77 21 00 00    	add    $0x2177,%ebx
 8049e8f:	83 ec 0c             	sub    $0xc,%esp
 8049e92:	8b 6c 24 20          	mov    0x20(%esp),%ebp
 8049e96:	8d b3 0c ff ff ff    	lea    -0xf4(%ebx),%esi
 8049e9c:	e8 53 e8 ff ff       	call   80486f4 <_init>
 8049ea1:	8d 83 08 ff ff ff    	lea    -0xf8(%ebx),%eax
 8049ea7:	29 c6                	sub    %eax,%esi
 8049ea9:	c1 fe 02             	sar    $0x2,%esi
 8049eac:	85 f6                	test   %esi,%esi
 8049eae:	74 25                	je     8049ed5 <__libc_csu_init+0x55>
 8049eb0:	31 ff                	xor    %edi,%edi
 8049eb2:	8d b6 00 00 00 00    	lea    0x0(%esi),%esi
 8049eb8:	83 ec 04             	sub    $0x4,%esp
 8049ebb:	ff 74 24 2c          	pushl  0x2c(%esp)
 8049ebf:	ff 74 24 2c          	pushl  0x2c(%esp)
 8049ec3:	55                   	push   %ebp
 8049ec4:	ff 94 bb 08 ff ff ff 	call   *-0xf8(%ebx,%edi,4)
 8049ecb:	83 c7 01             	add    $0x1,%edi
 8049ece:	83 c4 10             	add    $0x10,%esp
 8049ed1:	39 f7                	cmp    %esi,%edi
 8049ed3:	75 e3                	jne    8049eb8 <__libc_csu_init+0x38>
 8049ed5:	83 c4 0c             	add    $0xc,%esp
 8049ed8:	5b                   	pop    %ebx
 8049ed9:	5e                   	pop    %esi
 8049eda:	5f                   	pop    %edi
 8049edb:	5d                   	pop    %ebp
 8049edc:	c3                   	ret    
 8049edd:	8d 76 00             	lea    0x0(%esi),%esi

08049ee0 <__libc_csu_fini>:
 8049ee0:	f3 c3                	repz ret 

Disassembly of section .fini:

08049ee4 <_fini>:
 8049ee4:	53                   	push   %ebx
 8049ee5:	83 ec 08             	sub    $0x8,%esp
 8049ee8:	e8 23 ea ff ff       	call   8048910 <__x86.get_pc_thunk.bx>
 8049eed:	81 c3 13 21 00 00    	add    $0x2113,%ebx
 8049ef3:	83 c4 08             	add    $0x8,%esp
 8049ef6:	5b                   	pop    %ebx
 8049ef7:	c3                   	ret    
